

Microchip MPLAB XC8 Assembler V2.10 build 88905656 
                                                                                               Mon Oct 14 23:23:13 2019

Microchip MPLAB XC8 C Compiler v2.10 (Free license) build 20190730164152 Og1 
     1                           	processor	18F4620
     2                           	fnconf	rparam,??,?,0
     3                           	opt	pw 120
     4                           	opt	flic
     5                           	psect	smallconst,global,reloc=2,class=SMALLCONST,delta=1,noexec
     6                           	psect	cinit,global,reloc=2,class=CODE,delta=1
     7                           	psect	cstackCOMRAM,global,class=COMRAM,space=1,delta=1,noexec
     8                           	psect	text0,global,reloc=2,class=CODE,delta=1
     9                           	psect	text1,global,reloc=2,class=CODE,delta=1
    10                           	psect	text2,global,reloc=2,class=CODE,delta=1
    11                           	psect	text3,global,reloc=2,class=CODE,delta=1
    12                           	psect	text4,global,reloc=2,class=CODE,delta=1
    13                           	psect	text5,global,reloc=2,class=CODE,delta=1,group=1
    14                           	psect	text6,global,reloc=2,class=CODE,delta=1,group=1
    15                           	psect	text7,global,reloc=2,class=CODE,delta=1,group=1
    16                           	psect	text8,global,reloc=2,class=CODE,delta=1,group=1
    17                           	psect	intsave_regs,global,class=BIGRAM,space=1,delta=1,noexec
    18                           	psect	rparam,global,class=COMRAM,space=1,delta=1,noexec
    19  0000                     
    20                           ; Version 2.10
    21                           ; Generated 31/07/2019 GMT
    22                           ; 
    23                           ; Copyright © 2019, Microchip Technology Inc. and its subsidiaries ("Microchip")
    24                           ; All rights reserved.
    25                           ; 
    26                           ; This software is developed by Microchip Technology Inc. and its subsidiaries ("Microch
      +                          ip").
    27                           ; 
    28                           ; Redistribution and use in source and binary forms, with or without modification, are
    29                           ; permitted provided that the following conditions are met:
    30                           ; 
    31                           ;     1. Redistributions of source code must retain the above copyright notice, this lis
      +                          t of
    32                           ;        conditions and the following disclaimer.
    33                           ; 
    34                           ;     2. Redistributions in binary form must reproduce the above copyright notice, this 
      +                          list
    35                           ;        of conditions and the following disclaimer in the documentation and/or other
    36                           ;        materials provided with the distribution.
    37                           ; 
    38                           ;     3. Microchip's name may not be used to endorse or promote products derived from th
      +                          is
    39                           ;        software without specific prior written permission.
    40                           ; 
    41                           ; THIS SOFTWARE IS PROVIDED BY MICROCHIP "AS IS" AND ANY EXPRESS OR IMPLIED WARRANTIES,
    42                           ; INCLUDING, BUT NOT LIMITED TO, THE IMPLIED WARRANTIES OF MERCHANTABILITY AND FITNESS F
      +                          OR
    43                           ; PURPOSE ARE DISCLAIMED.  IN NO EVENT SHALL MICROCHIP BE LIABLE FOR ANY DIRECT, INDIREC
      +                          T,
    44                           ; INCIDENTAL, SPECIAL, EXEMPLARY, OR CONSEQUENTIAL DAMAGES (INCLUDING BUT NOT LIMITED TO
    45                           ; PROCUREMENT OF SUBSTITUTE GOODS OR SERVICES; LOSS OF USE, DATA OR PROFITS; OR BUSINESS
    46                           ; INTERRUPTION) HOWSOEVER CAUSED AND ON ANY THEORY OF LIABILITY, WHETHER IN CONTRACT, ST
      +                          RICT
    47                           ; LIABILITY, OR TORT (INCLUDING NEGLIGENCE OR OTHERWISE) ARISING IN ANY WAY OUT OF THE U
      +                          SE OF
    48                           ; THIS SOFTWARE, EVEN IF ADVISED OF THE POSSIBILITY OF SUCH DAMAGE.
    49                           ; 
    50                           ; 
    51                           ; Code-generator required, PIC18F4620 Definitions
    52                           ; 
    53                           ; SFR Addresses
    54  0000                     _TRISC	set	3988
    55  0000                     _RCREG	set	4014
    56  0000                     _TXREG	set	4013
    57  0000                     _BAUDCON	set	4024
    58  0000                     _RCSTA	set	4011
    59  0000                     _TXSTA	set	4012
    60  0000                     _SPBRG	set	4015
    61  0000                     _CREN	set	32092
    62  0000                     _OERR	set	32089
    63  0000                     _RCIF	set	31989
    64  0000                     _TXIF	set	31988
    65                           
    66                           	psect	smallconst
    67  001000                     __psmallconst:
    68                           	opt callstack 0
    69  001000  00                 	db	0
    70  001001                     STR_1:
    71  001001  00                 	db	0
    72  0000                     
    73                           ; #config settings
    74  001002  00                 	db	0	; dummy byte at the end
    75  0000                     
    76                           	psect	cinit
    77  001CB8                     __pcinit:
    78                           	opt callstack 0
    79  001CB8                     start_initialization:
    80                           	opt callstack 0
    81  001CB8                     __initialization:
    82                           	opt callstack 0
    83  001CB8                     end_of_initialization:
    84                           	opt callstack 0
    85  001CB8                     __end_of__initialization:
    86                           	opt callstack 0
    87  001CB8  0E00               	movlw	low (__Lsmallconst shr (0+16))
    88  001CBA  6EF8               	movwf	tblptru,c
    89  001CBC  0E10               	movlw	high __Lsmallconst
    90  001CBE  6EF7               	movwf	tblptrh,c
    91  001CC0  0100               	movlb	0
    92  001CC2  EF20  F00E         	goto	_main	;jump to C main() function
    93                           
    94                           	psect	cstackCOMRAM
    95  000001                     __pcstackCOMRAM:
    96                           	opt callstack 0
    97  000001                     ??_USART_send_char:
    98  000001                     ?_USART_receive_string:
    99                           	opt callstack 0
   100  000001                     ?___xxtofl:
   101                           	opt callstack 0
   102  000001                     ___xxtofl@val:
   103                           	opt callstack 0
   104                           
   105                           ; 4 bytes @ 0x0
   106  000001                     	ds	1
   107  000002                     USART_send_char@salida:
   108                           	opt callstack 0
   109                           
   110                           ; 1 bytes @ 0x1
   111  000002                     	ds	1
   112  000003                     ??_USART_receive_string:
   113                           
   114                           ; 1 bytes @ 0x2
   115  000003                     	ds	2
   116  000005                     ??___xxtofl:
   117  000005                     USART_receive_string@i:
   118                           	opt callstack 0
   119                           
   120                           ; 2 bytes @ 0x4
   121  000005                     	ds	2
   122  000007                     USART_receive_string@dato:
   123                           	opt callstack 0
   124                           
   125                           ; 1 bytes @ 0x6
   126  000007                     	ds	1
   127  000008                     USART_receive_string@data:
   128                           	opt callstack 0
   129                           
   130                           ; 2 bytes @ 0x7
   131  000008                     	ds	1
   132  000009                     ___xxtofl@sign:
   133                           	opt callstack 0
   134                           
   135                           ; 1 bytes @ 0x8
   136  000009                     	ds	1
   137  00000A                     ___xxtofl@exp:
   138                           	opt callstack 0
   139                           
   140                           ; 1 bytes @ 0x9
   141  00000A                     	ds	1
   142  00000B                     ___xxtofl@arg:
   143                           	opt callstack 0
   144                           
   145                           ; 4 bytes @ 0xA
   146  00000B                     	ds	4
   147  00000F                     ?___fldiv:
   148                           	opt callstack 0
   149  00000F                     ___fldiv@b:
   150                           	opt callstack 0
   151                           
   152                           ; 4 bytes @ 0xE
   153  00000F                     	ds	4
   154  000013                     ___fldiv@a:
   155                           	opt callstack 0
   156                           
   157                           ; 4 bytes @ 0x12
   158  000013                     	ds	4
   159  000017                     ??___fldiv:
   160                           
   161                           ; 1 bytes @ 0x16
   162  000017                     	ds	4
   163  00001B                     ___fldiv@rem:
   164                           	opt callstack 0
   165                           
   166                           ; 4 bytes @ 0x1A
   167  00001B                     	ds	4
   168  00001F                     ___fldiv@sign:
   169                           	opt callstack 0
   170                           
   171                           ; 1 bytes @ 0x1E
   172  00001F                     	ds	1
   173  000020                     ___fldiv@new_exp:
   174                           	opt callstack 0
   175                           
   176                           ; 2 bytes @ 0x1F
   177  000020                     	ds	2
   178  000022                     ___fldiv@grs:
   179                           	opt callstack 0
   180                           
   181                           ; 4 bytes @ 0x21
   182  000022                     	ds	4
   183  000026                     ___fldiv@bexp:
   184                           	opt callstack 0
   185                           
   186                           ; 1 bytes @ 0x25
   187  000026                     	ds	1
   188  000027                     ___fldiv@aexp:
   189                           	opt callstack 0
   190                           
   191                           ; 1 bytes @ 0x26
   192  000027                     	ds	1
   193  000028                     ?___fladd:
   194                           	opt callstack 0
   195  000028                     ___fladd@b:
   196                           	opt callstack 0
   197                           
   198                           ; 4 bytes @ 0x27
   199  000028                     	ds	4
   200  00002C                     ___fladd@a:
   201                           	opt callstack 0
   202                           
   203                           ; 4 bytes @ 0x2B
   204  00002C                     	ds	4
   205  000030                     ??___fladd:
   206                           
   207                           ; 1 bytes @ 0x2F
   208  000030                     	ds	4
   209  000034                     ___fladd@signs:
   210                           	opt callstack 0
   211                           
   212                           ; 1 bytes @ 0x33
   213  000034                     	ds	1
   214  000035                     ___fladd@aexp:
   215                           	opt callstack 0
   216                           
   217                           ; 1 bytes @ 0x34
   218  000035                     	ds	1
   219  000036                     ___fladd@bexp:
   220                           	opt callstack 0
   221                           
   222                           ; 1 bytes @ 0x35
   223  000036                     	ds	1
   224  000037                     ___fladd@grs:
   225                           	opt callstack 0
   226                           
   227                           ; 1 bytes @ 0x36
   228  000037                     	ds	1
   229  000038                     ?___fltol:
   230                           	opt callstack 0
   231  000038                     ___fltol@f1:
   232                           	opt callstack 0
   233                           
   234                           ; 4 bytes @ 0x37
   235  000038                     	ds	4
   236  00003C                     ??___fltol:
   237                           
   238                           ; 1 bytes @ 0x3B
   239  00003C                     	ds	4
   240  000040                     ___fltol@sign1:
   241                           	opt callstack 0
   242                           
   243                           ; 1 bytes @ 0x3F
   244  000040                     	ds	1
   245  000041                     ___fltol@exp1:
   246                           	opt callstack 0
   247                           
   248                           ; 1 bytes @ 0x40
   249  000041                     	ds	1
   250  000042                     USART_config@Baud_Rate:
   251                           	opt callstack 0
   252                           
   253                           ; 4 bytes @ 0x41
   254  000042                     	ds	4
   255  000046                     _USART_config$688:
   256                           	opt callstack 0
   257                           
   258                           ; 4 bytes @ 0x45
   259  000046                     	ds	4
   260  00004A                     
   261                           ; 1 bytes @ 0x49
   262  00004A                     	ds	4
   263  00004E                     main@dato:
   264                           	opt callstack 0
   265                           
   266                           ; 1 bytes @ 0x4D
   267  00004E                     	ds	1
   268                           
   269 ;;
   270 ;;Main: autosize = 0, tempsize = 0, incstack = 0, save=0
   271 ;;
   272 ;; *************** function _main *****************
   273 ;; Defined at:
   274 ;;		line 16 in file "main.c"
   275 ;; Parameters:    Size  Location     Type
   276 ;;		None
   277 ;; Auto vars:     Size  Location     Type
   278 ;;  datos           2    0        PTR unsigned char 
   279 ;;		 -> STR_2(1), STR_1(1), 
   280 ;;  i               2    0        int 
   281 ;;  dato            1   77[COMRAM] unsigned char 
   282 ;; Return value:  Size  Location     Type
   283 ;;                  1    wreg      void 
   284 ;; Registers used:
   285 ;;		wreg, status,2, status,0, tblptrl, tblptrh, tblptru, cstack
   286 ;; Tracked objects:
   287 ;;		On entry : 0/0
   288 ;;		On exit  : 0/0
   289 ;;		Unchanged: 0/0
   290 ;; Data sizes:     COMRAM   BANK0   BANK1   BANK2   BANK3   BANK4   BANK5   BANK6   BANK7   BANK8   BANK9  BANK10  BANK1
      +1  BANK12  BANK13  BANK14  BANK15
   291 ;;      Params:         0       0       0       0       0       0       0       0       0       0       0       0       
      +0       0       0       0       0
   292 ;;      Locals:         5       0       0       0       0       0       0       0       0       0       0       0       
      +0       0       0       0       0
   293 ;;      Temps:          0       0       0       0       0       0       0       0       0       0       0       0       
      +0       0       0       0       0
   294 ;;      Totals:         5       0       0       0       0       0       0       0       0       0       0       0       
      +0       0       0       0       0
   295 ;;Total ram usage:        5 bytes
   296 ;; Hardware stack levels required when called:    2
   297 ;; This function calls:
   298 ;;		_USART_config
   299 ;;		_USART_receive_char
   300 ;;		_USART_receive_string
   301 ;;		_USART_send_char
   302 ;; This function is called by:
   303 ;;		Startup code after reset
   304 ;; This function uses a non-reentrant model
   305 ;;
   306                           
   307                           	psect	text0
   308  001C40                     __ptext0:
   309                           	opt callstack 0
   310  001C40                     _main:
   311                           	opt callstack 29
   312  001C40                     
   313                           ;main.c: 20:     USART_config(9600);
   314  001C40  0E80               	movlw	128
   315  001C42  6E42               	movwf	USART_config@Baud_Rate^0,c
   316  001C44  0E25               	movlw	37
   317  001C46  6E43               	movwf	(USART_config@Baud_Rate+1)^0,c
   318  001C48  0E00               	movlw	0
   319  001C4A  6E44               	movwf	(USART_config@Baud_Rate+2)^0,c
   320  001C4C  0E00               	movlw	0
   321  001C4E  6E45               	movwf	(USART_config@Baud_Rate+3)^0,c
   322  001C50  EC8C  F00D         	call	_USART_config	;wreg free
   323  001C54                     l1680:
   324  001C54  ECEA  F00D         	call	_USART_receive_string	;wreg free
   325  001C58                     
   326                           ;main.c: 23:         dato = USART_receive_char();
   327  001C58  EC49  F00E         	call	_USART_receive_char	;wreg free
   328  001C5C  6E4E               	movwf	main@dato^0,c
   329  001C5E                     
   330                           ;main.c: 24:         USART_send_char(dato);
   331  001C5E  504E               	movf	main@dato^0,w,c
   332  001C60  EC36  F00E         	call	_USART_send_char
   333  001C64  EF2A  F00E         	goto	l1680
   334  001C68  EF00  F000         	goto	start
   335  001C6C                     __end_of_main:
   336                           	opt callstack 0
   337                           
   338 ;; *************** function _USART_send_char *****************
   339 ;; Defined at:
   340 ;;		line 37 in file "main.c"
   341 ;; Parameters:    Size  Location     Type
   342 ;;  salida          1    wreg     unsigned char 
   343 ;; Auto vars:     Size  Location     Type
   344 ;;  salida          1    1[COMRAM] unsigned char 
   345 ;; Return value:  Size  Location     Type
   346 ;;                  1    wreg      void 
   347 ;; Registers used:
   348 ;;		wreg, status,2, cstack
   349 ;; Tracked objects:
   350 ;;		On entry : 0/0
   351 ;;		On exit  : 0/0
   352 ;;		Unchanged: 0/0
   353 ;; Data sizes:     COMRAM   BANK0   BANK1   BANK2   BANK3   BANK4   BANK5   BANK6   BANK7   BANK8   BANK9  BANK10  BANK1
      +1  BANK12  BANK13  BANK14  BANK15
   354 ;;      Params:         0       0       0       0       0       0       0       0       0       0       0       0       
      +0       0       0       0       0
   355 ;;      Locals:         1       0       0       0       0       0       0       0       0       0       0       0       
      +0       0       0       0       0
   356 ;;      Temps:          1       0       0       0       0       0       0       0       0       0       0       0       
      +0       0       0       0       0
   357 ;;      Totals:         2       0       0       0       0       0       0       0       0       0       0       0       
      +0       0       0       0       0
   358 ;;Total ram usage:        2 bytes
   359 ;; Hardware stack levels used:    1
   360 ;; This function calls:
   361 ;;		Nothing
   362 ;; This function is called by:
   363 ;;		_main
   364 ;; This function uses a non-reentrant model
   365 ;;
   366                           
   367                           	psect	text1
   368  001C6C                     __ptext1:
   369                           	opt callstack 0
   370  001C6C                     _USART_send_char:
   371                           	opt callstack 30
   372                           
   373                           ;incstack = 0
   374                           ;USART_send_char@salida stored from wreg
   375  001C6C  6E02               	movwf	USART_send_char@salida^0,c
   376  001C6E                     l48:
   377  001C6E  A89E               	btfss	3998,4,c	;volatile
   378  001C70  EF3C  F00E         	goto	u831
   379  001C74  EF3E  F00E         	goto	u830
   380  001C78                     u831:
   381  001C78  EF37  F00E         	goto	l48
   382  001C7C                     u830:
   383  001C7C                     
   384                           ;main.c: 39:     TXREG = salida;
   385  001C7C  C002  FFAD         	movff	USART_send_char@salida,4013	;volatile
   386  001C80                     
   387                           ;main.c: 40:     _delay((unsigned long)((5)*(40000000/4000.0)));
   388  001C80  0E41               	movlw	65
   389  001C82  6E01               	movwf	??_USART_send_char^0,c
   390  001C84  0EEE               	movlw	238
   391  001C86                     u1647:
   392  001C86  2EE8               	decfsz	wreg,f,c
   393  001C88  D7FE               	bra	u1647
   394  001C8A  2E01               	decfsz	??_USART_send_char^0,f,c
   395  001C8C  D7FC               	bra	u1647
   396  001C8E  D000               	nop2	
   397  001C90  0012               	return		;funcret
   398  001C92                     __end_of_USART_send_char:
   399                           	opt callstack 0
   400                           
   401 ;; *************** function _USART_receive_string *****************
   402 ;; Defined at:
   403 ;;		line 53 in file "main.c"
   404 ;; Parameters:    Size  Location     Type
   405 ;;		None
   406 ;; Auto vars:     Size  Location     Type
   407 ;;  data            2    7[COMRAM] PTR unsigned char 
   408 ;;		 -> STR_2(1), 
   409 ;;  i               2    4[COMRAM] int 
   410 ;;  dato            1    6[COMRAM] unsigned char 
   411 ;; Return value:  Size  Location     Type
   412 ;;                  2    0[COMRAM] PTR unsigned char 
   413 ;; Registers used:
   414 ;;		wreg, status,2, status,0, tblptrl, tblptrh, tblptru, cstack
   415 ;; Tracked objects:
   416 ;;		On entry : 0/0
   417 ;;		On exit  : 0/0
   418 ;;		Unchanged: 0/0
   419 ;; Data sizes:     COMRAM   BANK0   BANK1   BANK2   BANK3   BANK4   BANK5   BANK6   BANK7   BANK8   BANK9  BANK10  BANK1
      +1  BANK12  BANK13  BANK14  BANK15
   420 ;;      Params:         2       0       0       0       0       0       0       0       0       0       0       0       
      +0       0       0       0       0
   421 ;;      Locals:         5       0       0       0       0       0       0       0       0       0       0       0       
      +0       0       0       0       0
   422 ;;      Temps:          2       0       0       0       0       0       0       0       0       0       0       0       
      +0       0       0       0       0
   423 ;;      Totals:         9       0       0       0       0       0       0       0       0       0       0       0       
      +0       0       0       0       0
   424 ;;Total ram usage:        9 bytes
   425 ;; Hardware stack levels used:    1
   426 ;; Hardware stack levels required when called:    1
   427 ;; This function calls:
   428 ;;		_USART_receive_char
   429 ;; This function is called by:
   430 ;;		_main
   431 ;; This function uses a non-reentrant model
   432 ;;
   433                           
   434                           	psect	text2
   435  001BD4                     __ptext2:
   436                           	opt callstack 0
   437  001BD4                     _USART_receive_string:
   438                           	opt callstack 29
   439  001BD4                     
   440                           ;main.c: 54:     char* data = "";
   441  001BD4  0E01               	movlw	low STR_1
   442  001BD6  6E08               	movwf	USART_receive_string@data^0,c
   443  001BD8  0E10               	movlw	high STR_1
   444  001BDA  6E09               	movwf	(USART_receive_string@data+1)^0,c
   445  001BDC                     
   446                           ;main.c: 55:     int i = 0;
   447  001BDC  0E00               	movlw	0
   448  001BDE  6E06               	movwf	(USART_receive_string@i+1)^0,c
   449  001BE0  0E00               	movlw	0
   450  001BE2  6E05               	movwf	USART_receive_string@i^0,c
   451  001BE4                     
   452                           ;main.c: 56:     char dato;;main.c: 58:     dato = USART_receive_char();
   453  001BE4  EC49  F00E         	call	_USART_receive_char	;wreg free
   454  001BE8  6E07               	movwf	USART_receive_string@dato^0,c
   455                           
   456                           ;main.c: 59:     while(dato != '\0'){
   457  001BEA  EF06  F00E         	goto	l1666
   458  001BEE                     l1662:
   459                           
   460                           ;main.c: 60:         *(data+i) = dato;
   461  001BEE  5005               	movf	USART_receive_string@i^0,w,c
   462  001BF0  2408               	addwf	USART_receive_string@data^0,w,c
   463  001BF2  6E03               	movwf	??_USART_receive_string^0,c
   464  001BF4  5006               	movf	(USART_receive_string@i+1)^0,w,c
   465  001BF6  2009               	addwfc	(USART_receive_string@data+1)^0,w,c
   466  001BF8  6E04               	movwf	(??_USART_receive_string+1)^0,c
   467  001BFA  C003  FFF6         	movff	??_USART_receive_string,tblptrl
   468  001BFE  C004  FFF7         	movff	??_USART_receive_string+1,tblptrh
   469  001C02                     	if	0	;tblptru may be non-zero
   470  001C02                     	endif
   471  001C02                     	if	0	;tblptru may be non-zero
   472  001C02                     	endif
   473  001C02  C007  FFF5         	movff	USART_receive_string@dato,tablat
   474  001C06  000C               	tblwt		*
   475  001C08                     
   476                           ;main.c: 61:         i++;
   477  001C08  4A05               	infsnz	USART_receive_string@i^0,f,c
   478  001C0A  2A06               	incf	(USART_receive_string@i+1)^0,f,c
   479  001C0C                     l1666:
   480                           
   481                           ;main.c: 59:     while(dato != '\0'){
   482  001C0C  5007               	movf	USART_receive_string@dato^0,w,c
   483  001C0E  A4D8               	btfss	status,2,c
   484  001C10  EF0C  F00E         	goto	u1631
   485  001C14  EF0E  F00E         	goto	u1630
   486  001C18                     u1631:
   487  001C18  EFF7  F00D         	goto	l1662
   488  001C1C                     u1630:
   489  001C1C                     
   490                           ;main.c: 63:     *(data+i) = '\0';
   491  001C1C  5005               	movf	USART_receive_string@i^0,w,c
   492  001C1E  2408               	addwf	USART_receive_string@data^0,w,c
   493  001C20  6E03               	movwf	??_USART_receive_string^0,c
   494  001C22  5006               	movf	(USART_receive_string@i+1)^0,w,c
   495  001C24  2009               	addwfc	(USART_receive_string@data+1)^0,w,c
   496  001C26  6E04               	movwf	(??_USART_receive_string+1)^0,c
   497  001C28  C003  FFF6         	movff	??_USART_receive_string,tblptrl
   498  001C2C  C004  FFF7         	movff	??_USART_receive_string+1,tblptrh
   499  001C30                     	if	0	;tblptru may be non-zero
   500  001C30                     	endif
   501  001C30                     	if	0	;tblptru may be non-zero
   502  001C30                     	endif
   503  001C30  0E00               	movlw	0
   504  001C32  6EF5               	movwf	tablat,c
   505  001C34  000C               	tblwt		*
   506  001C36                     
   507                           ;main.c: 64:     return data;
   508  001C36  C008  F001         	movff	USART_receive_string@data,?_USART_receive_string
   509  001C3A  C009  F002         	movff	USART_receive_string@data+1,?_USART_receive_string+1
   510  001C3E  0012               	return		;funcret
   511  001C40                     __end_of_USART_receive_string:
   512                           	opt callstack 0
   513                           
   514 ;; *************** function _USART_receive_char *****************
   515 ;; Defined at:
   516 ;;		line 43 in file "main.c"
   517 ;; Parameters:    Size  Location     Type
   518 ;;		None
   519 ;; Auto vars:     Size  Location     Type
   520 ;;		None
   521 ;; Return value:  Size  Location     Type
   522 ;;                  1    wreg      unsigned char 
   523 ;; Registers used:
   524 ;;		wreg, status,2
   525 ;; Tracked objects:
   526 ;;		On entry : 0/0
   527 ;;		On exit  : 0/0
   528 ;;		Unchanged: 0/0
   529 ;; Data sizes:     COMRAM   BANK0   BANK1   BANK2   BANK3   BANK4   BANK5   BANK6   BANK7   BANK8   BANK9  BANK10  BANK1
      +1  BANK12  BANK13  BANK14  BANK15
   530 ;;      Params:         0       0       0       0       0       0       0       0       0       0       0       0       
      +0       0       0       0       0
   531 ;;      Locals:         0       0       0       0       0       0       0       0       0       0       0       0       
      +0       0       0       0       0
   532 ;;      Temps:          0       0       0       0       0       0       0       0       0       0       0       0       
      +0       0       0       0       0
   533 ;;      Totals:         0       0       0       0       0       0       0       0       0       0       0       0       
      +0       0       0       0       0
   534 ;;Total ram usage:        0 bytes
   535 ;; Hardware stack levels used:    1
   536 ;; This function calls:
   537 ;;		Nothing
   538 ;; This function is called by:
   539 ;;		_main
   540 ;;		_USART_receive_string
   541 ;; This function uses a non-reentrant model
   542 ;;
   543                           
   544                           	psect	text3
   545  001C92                     __ptext3:
   546                           	opt callstack 0
   547  001C92                     _USART_receive_char:
   548                           	opt callstack 29
   549  001C92                     l54:
   550  001C92  AA9E               	btfss	3998,5,c	;volatile
   551  001C94  EF4E  F00E         	goto	u11
   552  001C98  EF50  F00E         	goto	u10
   553  001C9C                     u11:
   554  001C9C  EF49  F00E         	goto	l54
   555  001CA0                     u10:
   556  001CA0                     
   557                           ;main.c: 45:     if(OERR){
   558  001CA0  A2AB               	btfss	4011,1,c	;volatile
   559  001CA2  EF55  F00E         	goto	u21
   560  001CA6  EF57  F00E         	goto	u20
   561  001CAA                     u21:
   562  001CAA  EF5A  F00E         	goto	l744
   563  001CAE                     u20:
   564  001CAE                     
   565                           ;main.c: 46:         CREN = 0;
   566  001CAE  98AB               	bcf	4011,4,c	;volatile
   567                           
   568                           ;main.c: 47:         __nop();
   569  001CB0  F000               	nop	
   570                           
   571                           ;main.c: 48:         CREN=1;
   572  001CB2  88AB               	bsf	4011,4,c	;volatile
   573  001CB4                     l744:
   574                           
   575                           ;main.c: 50:     return RCREG;
   576  001CB4  50AE               	movf	174,w,c	;volatile
   577  001CB6  0012               	return		;funcret
   578  001CB8                     __end_of_USART_receive_char:
   579                           	opt callstack 0
   580                           
   581 ;; *************** function _USART_config *****************
   582 ;; Defined at:
   583 ;;		line 29 in file "main.c"
   584 ;; Parameters:    Size  Location     Type
   585 ;;  Baud_Rate       4   65[COMRAM] long 
   586 ;; Auto vars:     Size  Location     Type
   587 ;;		None
   588 ;; Return value:  Size  Location     Type
   589 ;;                  1    wreg      void 
   590 ;; Registers used:
   591 ;;		wreg, status,2, status,0, cstack
   592 ;; Tracked objects:
   593 ;;		On entry : 0/0
   594 ;;		On exit  : 0/0
   595 ;;		Unchanged: 0/0
   596 ;; Data sizes:     COMRAM   BANK0   BANK1   BANK2   BANK3   BANK4   BANK5   BANK6   BANK7   BANK8   BANK9  BANK10  BANK1
      +1  BANK12  BANK13  BANK14  BANK15
   597 ;;      Params:         4       0       0       0       0       0       0       0       0       0       0       0       
      +0       0       0       0       0
   598 ;;      Locals:         4       0       0       0       0       0       0       0       0       0       0       0       
      +0       0       0       0       0
   599 ;;      Temps:          0       0       0       0       0       0       0       0       0       0       0       0       
      +0       0       0       0       0
   600 ;;      Totals:         8       0       0       0       0       0       0       0       0       0       0       0       
      +0       0       0       0       0
   601 ;;Total ram usage:        8 bytes
   602 ;; Hardware stack levels used:    1
   603 ;; Hardware stack levels required when called:    1
   604 ;; This function calls:
   605 ;;		___fladd
   606 ;;		___fldiv
   607 ;;		___fltol
   608 ;;		___xxtofl
   609 ;; This function is called by:
   610 ;;		_main
   611 ;; This function uses a non-reentrant model
   612 ;;
   613                           
   614                           	psect	text4
   615  001B18                     __ptext4:
   616                           	opt callstack 0
   617  001B18                     _USART_config:
   618                           	opt callstack 29
   619  001B18                     
   620                           ;main.c: 30:     TRISC = 0xBF;
   621  001B18  0EBF               	movlw	191
   622  001B1A  6E94               	movwf	148,c	;volatile
   623  001B1C                     
   624                           ;main.c: 31:     SPBRG = (int) ((((float)40000000/(float)Baud_Rate)/64)-1);
   625  001B1C  C042  F001         	movff	USART_config@Baud_Rate,___xxtofl@val
   626  001B20  C043  F002         	movff	USART_config@Baud_Rate+1,___xxtofl@val+1
   627  001B24  C044  F003         	movff	USART_config@Baud_Rate+2,___xxtofl@val+2
   628  001B28  C045  F004         	movff	USART_config@Baud_Rate+3,___xxtofl@val+3
   629  001B2C  0E01               	movlw	1
   630  001B2E  EC2F  F00C         	call	___xxtofl
   631  001B32  C001  F013         	movff	?___xxtofl,___fldiv@a
   632  001B36  C002  F014         	movff	?___xxtofl+1,___fldiv@a+1
   633  001B3A  C003  F015         	movff	?___xxtofl+2,___fldiv@a+2
   634  001B3E  C004  F016         	movff	?___xxtofl+3,___fldiv@a+3
   635  001B42  0E80               	movlw	128
   636  001B44  6E0F               	movwf	___fldiv@b^0,c
   637  001B46  0E96               	movlw	150
   638  001B48  6E10               	movwf	(___fldiv@b+1)^0,c
   639  001B4A  0E18               	movlw	24
   640  001B4C  6E11               	movwf	(___fldiv@b+2)^0,c
   641  001B4E  0E4C               	movlw	76
   642  001B50  6E12               	movwf	(___fldiv@b+3)^0,c
   643  001B52  EC62  F00A         	call	___fldiv	;wreg free
   644  001B56  C00F  F046         	movff	?___fldiv,_USART_config$688
   645  001B5A  C010  F047         	movff	?___fldiv+1,_USART_config$688+1
   646  001B5E  C011  F048         	movff	?___fldiv+2,_USART_config$688+2
   647  001B62  C012  F049         	movff	?___fldiv+3,_USART_config$688+3
   648  001B66                     
   649                           ;main.c: 31:     SPBRG = (int) ((((float)40000000/(float)Baud_Rate)/64)-1);
   650  001B66  0E00               	movlw	0
   651  001B68  6E2C               	movwf	___fladd@a^0,c
   652  001B6A  0E00               	movlw	0
   653  001B6C  6E2D               	movwf	(___fladd@a+1)^0,c
   654  001B6E  0E80               	movlw	128
   655  001B70  6E2E               	movwf	(___fladd@a+2)^0,c
   656  001B72  0EBF               	movlw	191
   657  001B74  6E2F               	movwf	(___fladd@a+3)^0,c
   658  001B76  0E00               	movlw	0
   659  001B78  6E13               	movwf	___fldiv@a^0,c
   660  001B7A  0E00               	movlw	0
   661  001B7C  6E14               	movwf	(___fldiv@a+1)^0,c
   662  001B7E  0E80               	movlw	128
   663  001B80  6E15               	movwf	(___fldiv@a+2)^0,c
   664  001B82  0E42               	movlw	66
   665  001B84  6E16               	movwf	(___fldiv@a+3)^0,c
   666  001B86  C046  F00F         	movff	_USART_config$688,___fldiv@b
   667  001B8A  C047  F010         	movff	_USART_config$688+1,___fldiv@b+1
   668  001B8E  C048  F011         	movff	_USART_config$688+2,___fldiv@b+2
   669  001B92  C049  F012         	movff	_USART_config$688+3,___fldiv@b+3
   670  001B96  EC62  F00A         	call	___fldiv	;wreg free
   671  001B9A  C00F  F028         	movff	?___fldiv,___fladd@b
   672  001B9E  C010  F029         	movff	?___fldiv+1,___fladd@b+1
   673  001BA2  C011  F02A         	movff	?___fldiv+2,___fladd@b+2
   674  001BA6  C012  F02B         	movff	?___fldiv+3,___fladd@b+3
   675  001BAA  EC02  F008         	call	___fladd	;wreg free
   676  001BAE  C028  F038         	movff	?___fladd,___fltol@f1
   677  001BB2  C029  F039         	movff	?___fladd+1,___fltol@f1+1
   678  001BB6  C02A  F03A         	movff	?___fladd+2,___fltol@f1+2
   679  001BBA  C02B  F03B         	movff	?___fladd+3,___fltol@f1+3
   680  001BBE  EC09  F00D         	call	___fltol	;wreg free
   681  001BC2  5038               	movf	?___fltol^0,w,c
   682  001BC4  6EAF               	movwf	175,c	;volatile
   683                           
   684                           ;main.c: 32:     TXSTA = 0x20;
   685  001BC6  0E20               	movlw	32
   686  001BC8  6EAC               	movwf	172,c	;volatile
   687                           
   688                           ;main.c: 33:     RCSTA = 0x90;
   689  001BCA  0E90               	movlw	144
   690  001BCC  6EAB               	movwf	171,c	;volatile
   691                           
   692                           ;main.c: 34:     BAUDCON = 0x00;
   693  001BCE  0E00               	movlw	0
   694  001BD0  6EB8               	movwf	184,c	;volatile
   695  001BD2  0012               	return		;funcret
   696  001BD4                     __end_of_USART_config:
   697                           	opt callstack 0
   698                           
   699 ;; *************** function ___xxtofl *****************
   700 ;; Defined at:
   701 ;;		line 10 in file "/opt/microchip/xc8/v2.10/pic/sources/c99/common/xxtofl.c"
   702 ;; Parameters:    Size  Location     Type
   703 ;;  sign            1    wreg     unsigned char 
   704 ;;  val             4    0[COMRAM] long 
   705 ;; Auto vars:     Size  Location     Type
   706 ;;  sign            1    8[COMRAM] unsigned char 
   707 ;;  arg             4   10[COMRAM] unsigned long 
   708 ;;  exp             1    9[COMRAM] unsigned char 
   709 ;; Return value:  Size  Location     Type
   710 ;;                  4    0[COMRAM] unsigned char 
   711 ;; Registers used:
   712 ;;		wreg, status,2, status,0
   713 ;; Tracked objects:
   714 ;;		On entry : 0/0
   715 ;;		On exit  : 0/0
   716 ;;		Unchanged: 0/0
   717 ;; Data sizes:     COMRAM   BANK0   BANK1   BANK2   BANK3   BANK4   BANK5   BANK6   BANK7   BANK8   BANK9  BANK10  BANK1
      +1  BANK12  BANK13  BANK14  BANK15
   718 ;;      Params:         4       0       0       0       0       0       0       0       0       0       0       0       
      +0       0       0       0       0
   719 ;;      Locals:         6       0       0       0       0       0       0       0       0       0       0       0       
      +0       0       0       0       0
   720 ;;      Temps:          4       0       0       0       0       0       0       0       0       0       0       0       
      +0       0       0       0       0
   721 ;;      Totals:        14       0       0       0       0       0       0       0       0       0       0       0       
      +0       0       0       0       0
   722 ;;Total ram usage:       14 bytes
   723 ;; Hardware stack levels used:    1
   724 ;; This function calls:
   725 ;;		Nothing
   726 ;; This function is called by:
   727 ;;		_USART_config
   728 ;; This function uses a non-reentrant model
   729 ;;
   730                           
   731                           	psect	text5
   732  00185E                     __ptext5:
   733                           	opt callstack 0
   734  00185E                     ___xxtofl:
   735                           	opt callstack 29
   736                           
   737                           ;incstack = 0
   738                           ;___xxtofl@sign stored from wreg
   739  00185E  6E09               	movwf	___xxtofl@sign^0,c
   740  001860  5009               	movf	___xxtofl@sign^0,w,c
   741  001862  B4D8               	btfsc	status,2,c
   742  001864  EF36  F00C         	goto	u1531
   743  001868  EF38  F00C         	goto	u1530
   744  00186C                     u1531:
   745  00186C  EF5A  F00C         	goto	l722
   746  001870                     u1530:
   747  001870  BE04               	btfsc	(___xxtofl@val+3)^0,7,c
   748  001872  EF3F  F00C         	goto	u1540
   749  001876  EF3D  F00C         	goto	u1541
   750  00187A                     u1541:
   751  00187A  EF5A  F00C         	goto	l722
   752  00187E                     u1540:
   753  00187E  C001  F005         	movff	___xxtofl@val,??___xxtofl
   754  001882  C002  F006         	movff	___xxtofl@val+1,??___xxtofl+1
   755  001886  C003  F007         	movff	___xxtofl@val+2,??___xxtofl+2
   756  00188A  C004  F008         	movff	___xxtofl@val+3,??___xxtofl+3
   757  00188E  1E05               	comf	??___xxtofl^0,f,c
   758  001890  1E06               	comf	(??___xxtofl+1)^0,f,c
   759  001892  1E07               	comf	(??___xxtofl+2)^0,f,c
   760  001894  1E08               	comf	(??___xxtofl+3)^0,f,c
   761  001896  2A05               	incf	??___xxtofl^0,f,c
   762  001898  0E00               	movlw	0
   763  00189A  2206               	addwfc	(??___xxtofl+1)^0,f,c
   764  00189C  2207               	addwfc	(??___xxtofl+2)^0,f,c
   765  00189E  2208               	addwfc	(??___xxtofl+3)^0,f,c
   766  0018A0  C005  F00B         	movff	??___xxtofl,___xxtofl@arg
   767  0018A4  C006  F00C         	movff	??___xxtofl+1,___xxtofl@arg+1
   768  0018A8  C007  F00D         	movff	??___xxtofl+2,___xxtofl@arg+2
   769  0018AC  C008  F00E         	movff	??___xxtofl+3,___xxtofl@arg+3
   770  0018B0  EF62  F00C         	goto	l1610
   771  0018B4                     l722:
   772  0018B4  C001  F00B         	movff	___xxtofl@val,___xxtofl@arg
   773  0018B8  C002  F00C         	movff	___xxtofl@val+1,___xxtofl@arg+1
   774  0018BC  C003  F00D         	movff	___xxtofl@val+2,___xxtofl@arg+2
   775  0018C0  C004  F00E         	movff	___xxtofl@val+3,___xxtofl@arg+3
   776  0018C4                     l1610:
   777  0018C4  5001               	movf	___xxtofl@val^0,w,c
   778  0018C6  1002               	iorwf	(___xxtofl@val+1)^0,w,c
   779  0018C8  1003               	iorwf	(___xxtofl@val+2)^0,w,c
   780  0018CA  1004               	iorwf	(___xxtofl@val+3)^0,w,c
   781  0018CC  A4D8               	btfss	status,2,c
   782  0018CE  EF6B  F00C         	goto	u1551
   783  0018D2  EF6D  F00C         	goto	u1550
   784  0018D6                     u1551:
   785  0018D6  EF77  F00C         	goto	l1616
   786  0018DA                     u1550:
   787  0018DA  0E00               	movlw	0
   788  0018DC  6E01               	movwf	?___xxtofl^0,c
   789  0018DE  0E00               	movlw	0
   790  0018E0  6E02               	movwf	(?___xxtofl+1)^0,c
   791  0018E2  0E00               	movlw	0
   792  0018E4  6E03               	movwf	(?___xxtofl+2)^0,c
   793  0018E6  0E00               	movlw	0
   794  0018E8  6E04               	movwf	(?___xxtofl+3)^0,c
   795  0018EA  EF08  F00D         	goto	l725
   796  0018EE                     l1616:
   797  0018EE  0E96               	movlw	150
   798  0018F0  6E0A               	movwf	___xxtofl@exp^0,c
   799  0018F2  EF81  F00C         	goto	l1620
   800  0018F6                     l1618:
   801  0018F6  2A0A               	incf	___xxtofl@exp^0,f,c
   802  0018F8  90D8               	bcf	status,0,c
   803  0018FA  320E               	rrcf	(___xxtofl@arg+3)^0,f,c
   804  0018FC  320D               	rrcf	(___xxtofl@arg+2)^0,f,c
   805  0018FE  320C               	rrcf	(___xxtofl@arg+1)^0,f,c
   806  001900  320B               	rrcf	___xxtofl@arg^0,f,c
   807  001902                     l1620:
   808  001902  0E00               	movlw	0
   809  001904  140B               	andwf	___xxtofl@arg^0,w,c
   810  001906  6E05               	movwf	??___xxtofl^0,c
   811  001908  0E00               	movlw	0
   812  00190A  140C               	andwf	(___xxtofl@arg+1)^0,w,c
   813  00190C  6E06               	movwf	(??___xxtofl+1)^0,c
   814  00190E  0E00               	movlw	0
   815  001910  140D               	andwf	(___xxtofl@arg+2)^0,w,c
   816  001912  6E07               	movwf	(??___xxtofl+2)^0,c
   817  001914  0EFE               	movlw	254
   818  001916  140E               	andwf	(___xxtofl@arg+3)^0,w,c
   819  001918  6E08               	movwf	(??___xxtofl+3)^0,c
   820  00191A  5005               	movf	??___xxtofl^0,w,c
   821  00191C  1006               	iorwf	(??___xxtofl+1)^0,w,c
   822  00191E  1007               	iorwf	(??___xxtofl+2)^0,w,c
   823  001920  1008               	iorwf	(??___xxtofl+3)^0,w,c
   824  001922  A4D8               	btfss	status,2,c
   825  001924  EF96  F00C         	goto	u1561
   826  001928  EF98  F00C         	goto	u1560
   827  00192C                     u1561:
   828  00192C  EF7B  F00C         	goto	l1618
   829  001930                     u1560:
   830  001930  EFA6  F00C         	goto	l729
   831  001934                     l1622:
   832  001934  2A0A               	incf	___xxtofl@exp^0,f,c
   833  001936  0E01               	movlw	1
   834  001938  260B               	addwf	___xxtofl@arg^0,f,c
   835  00193A  0E00               	movlw	0
   836  00193C  220C               	addwfc	(___xxtofl@arg+1)^0,f,c
   837  00193E  220D               	addwfc	(___xxtofl@arg+2)^0,f,c
   838  001940  220E               	addwfc	(___xxtofl@arg+3)^0,f,c
   839  001942  90D8               	bcf	status,0,c
   840  001944  320E               	rrcf	(___xxtofl@arg+3)^0,f,c
   841  001946  320D               	rrcf	(___xxtofl@arg+2)^0,f,c
   842  001948  320C               	rrcf	(___xxtofl@arg+1)^0,f,c
   843  00194A  320B               	rrcf	___xxtofl@arg^0,f,c
   844  00194C                     l729:
   845  00194C  0E00               	movlw	0
   846  00194E  140B               	andwf	___xxtofl@arg^0,w,c
   847  001950  6E05               	movwf	??___xxtofl^0,c
   848  001952  0E00               	movlw	0
   849  001954  140C               	andwf	(___xxtofl@arg+1)^0,w,c
   850  001956  6E06               	movwf	(??___xxtofl+1)^0,c
   851  001958  0E00               	movlw	0
   852  00195A  140D               	andwf	(___xxtofl@arg+2)^0,w,c
   853  00195C  6E07               	movwf	(??___xxtofl+2)^0,c
   854  00195E  0EFF               	movlw	255
   855  001960  140E               	andwf	(___xxtofl@arg+3)^0,w,c
   856  001962  6E08               	movwf	(??___xxtofl+3)^0,c
   857  001964  5005               	movf	??___xxtofl^0,w,c
   858  001966  1006               	iorwf	(??___xxtofl+1)^0,w,c
   859  001968  1007               	iorwf	(??___xxtofl+2)^0,w,c
   860  00196A  1008               	iorwf	(??___xxtofl+3)^0,w,c
   861  00196C  A4D8               	btfss	status,2,c
   862  00196E  EFBB  F00C         	goto	u1571
   863  001972  EFBD  F00C         	goto	u1570
   864  001976                     u1571:
   865  001976  EF9A  F00C         	goto	l1622
   866  00197A                     u1570:
   867  00197A  EFC5  F00C         	goto	l1630
   868  00197E                     l1628:
   869  00197E  060A               	decf	___xxtofl@exp^0,f,c
   870  001980  90D8               	bcf	status,0,c
   871  001982  360B               	rlcf	___xxtofl@arg^0,f,c
   872  001984  360C               	rlcf	(___xxtofl@arg+1)^0,f,c
   873  001986  360D               	rlcf	(___xxtofl@arg+2)^0,f,c
   874  001988  360E               	rlcf	(___xxtofl@arg+3)^0,f,c
   875  00198A                     l1630:
   876  00198A  BE0D               	btfsc	(___xxtofl@arg+2)^0,7,c
   877  00198C  EFCA  F00C         	goto	u1581
   878  001990  EFCC  F00C         	goto	u1580
   879  001994                     u1581:
   880  001994  EFD4  F00C         	goto	l736
   881  001998                     u1580:
   882  001998  0E02               	movlw	2
   883  00199A  600A               	cpfslt	___xxtofl@exp^0,c
   884  00199C  EFD2  F00C         	goto	u1591
   885  0019A0  EFD4  F00C         	goto	u1590
   886  0019A4                     u1591:
   887  0019A4  EFBF  F00C         	goto	l1628
   888  0019A8                     u1590:
   889  0019A8                     l736:
   890  0019A8  B00A               	btfsc	___xxtofl@exp^0,0,c
   891  0019AA  EFD9  F00C         	goto	u1601
   892  0019AE  EFDB  F00C         	goto	u1600
   893  0019B2                     u1601:
   894  0019B2  EFDC  F00C         	goto	l1636
   895  0019B6                     u1600:
   896  0019B6  9E0D               	bcf	(___xxtofl@arg+2)^0,7,c
   897  0019B8                     l1636:
   898  0019B8  90D8               	bcf	status,0,c
   899  0019BA  320A               	rrcf	___xxtofl@exp^0,f,c
   900  0019BC  C00A  F005         	movff	___xxtofl@exp,??___xxtofl
   901  0019C0  6A06               	clrf	(??___xxtofl+1)^0,c
   902  0019C2  6A07               	clrf	(??___xxtofl+2)^0,c
   903  0019C4  6A08               	clrf	(??___xxtofl+3)^0,c
   904  0019C6  C005  F008         	movff	??___xxtofl,??___xxtofl+3
   905  0019CA  6A07               	clrf	(??___xxtofl+2)^0,c
   906  0019CC  6A06               	clrf	(??___xxtofl+1)^0,c
   907  0019CE  6A05               	clrf	??___xxtofl^0,c
   908  0019D0  5005               	movf	??___xxtofl^0,w,c
   909  0019D2  120B               	iorwf	___xxtofl@arg^0,f,c
   910  0019D4  5006               	movf	(??___xxtofl+1)^0,w,c
   911  0019D6  120C               	iorwf	(___xxtofl@arg+1)^0,f,c
   912  0019D8  5007               	movf	(??___xxtofl+2)^0,w,c
   913  0019DA  120D               	iorwf	(___xxtofl@arg+2)^0,f,c
   914  0019DC  5008               	movf	(??___xxtofl+3)^0,w,c
   915  0019DE  120E               	iorwf	(___xxtofl@arg+3)^0,f,c
   916  0019E0  5009               	movf	___xxtofl@sign^0,w,c
   917  0019E2  B4D8               	btfsc	status,2,c
   918  0019E4  EFF6  F00C         	goto	u1611
   919  0019E8  EFF8  F00C         	goto	u1610
   920  0019EC                     u1611:
   921  0019EC  EF00  F00D         	goto	l1646
   922  0019F0                     u1610:
   923  0019F0  BE04               	btfsc	(___xxtofl@val+3)^0,7,c
   924  0019F2  EFFF  F00C         	goto	u1620
   925  0019F6  EFFD  F00C         	goto	u1621
   926  0019FA                     u1621:
   927  0019FA  EF00  F00D         	goto	l1646
   928  0019FE                     u1620:
   929  0019FE  8E0E               	bsf	(___xxtofl@arg+3)^0,7,c
   930  001A00                     l1646:
   931  001A00  C00B  F001         	movff	___xxtofl@arg,?___xxtofl
   932  001A04  C00C  F002         	movff	___xxtofl@arg+1,?___xxtofl+1
   933  001A08  C00D  F003         	movff	___xxtofl@arg+2,?___xxtofl+2
   934  001A0C  C00E  F004         	movff	___xxtofl@arg+3,?___xxtofl+3
   935  001A10                     l725:
   936  001A10  0012               	return		;funcret
   937  001A12                     __end_of___xxtofl:
   938                           	opt callstack 0
   939                           
   940 ;; *************** function ___fltol *****************
   941 ;; Defined at:
   942 ;;		line 43 in file "/opt/microchip/xc8/v2.10/pic/sources/c99/common/fltol.c"
   943 ;; Parameters:    Size  Location     Type
   944 ;;  f1              4   55[COMRAM] unsigned char 
   945 ;; Auto vars:     Size  Location     Type
   946 ;;  exp1            1   64[COMRAM] unsigned char 
   947 ;;  sign1           1   63[COMRAM] unsigned char 
   948 ;; Return value:  Size  Location     Type
   949 ;;                  4   55[COMRAM] long 
   950 ;; Registers used:
   951 ;;		wreg, status,2, status,0
   952 ;; Tracked objects:
   953 ;;		On entry : 0/0
   954 ;;		On exit  : 0/0
   955 ;;		Unchanged: 0/0
   956 ;; Data sizes:     COMRAM   BANK0   BANK1   BANK2   BANK3   BANK4   BANK5   BANK6   BANK7   BANK8   BANK9  BANK10  BANK1
      +1  BANK12  BANK13  BANK14  BANK15
   957 ;;      Params:         4       0       0       0       0       0       0       0       0       0       0       0       
      +0       0       0       0       0
   958 ;;      Locals:         2       0       0       0       0       0       0       0       0       0       0       0       
      +0       0       0       0       0
   959 ;;      Temps:          4       0       0       0       0       0       0       0       0       0       0       0       
      +0       0       0       0       0
   960 ;;      Totals:        10       0       0       0       0       0       0       0       0       0       0       0       
      +0       0       0       0       0
   961 ;;Total ram usage:       10 bytes
   962 ;; Hardware stack levels used:    1
   963 ;; This function calls:
   964 ;;		Nothing
   965 ;; This function is called by:
   966 ;;		_USART_config
   967 ;; This function uses a non-reentrant model
   968 ;;
   969                           
   970                           	psect	text6
   971  001A12                     __ptext6:
   972                           	opt callstack 0
   973  001A12                     ___fltol:
   974                           	opt callstack 29
   975  001A12  343A               	rlcf	(___fltol@f1+2)^0,w,c
   976  001A14  343B               	rlcf	(___fltol@f1+3)^0,w,c
   977  001A16  6E41               	movwf	___fltol@exp1^0,c
   978  001A18  5041               	movf	___fltol@exp1^0,w,c
   979  001A1A  A4D8               	btfss	status,2,c
   980  001A1C  EF12  F00D         	goto	u1461
   981  001A20  EF14  F00D         	goto	u1460
   982  001A24                     u1461:
   983  001A24  EF1E  F00D         	goto	l1566
   984  001A28                     u1460:
   985  001A28                     l1562:
   986  001A28  0E00               	movlw	0
   987  001A2A  6E38               	movwf	?___fltol^0,c
   988  001A2C  0E00               	movlw	0
   989  001A2E  6E39               	movwf	(?___fltol+1)^0,c
   990  001A30  0E00               	movlw	0
   991  001A32  6E3A               	movwf	(?___fltol+2)^0,c
   992  001A34  0E00               	movlw	0
   993  001A36  6E3B               	movwf	(?___fltol+3)^0,c
   994  001A38  EF8B  F00D         	goto	l364
   995  001A3C                     l1566:
   996  001A3C  C038  F03C         	movff	___fltol@f1,??___fltol
   997  001A40  C039  F03D         	movff	___fltol@f1+1,??___fltol+1
   998  001A44  C03A  F03E         	movff	___fltol@f1+2,??___fltol+2
   999  001A48  C03B  F03F         	movff	___fltol@f1+3,??___fltol+3
  1000  001A4C  0E20               	movlw	32
  1001  001A4E  EF2E  F00D         	goto	u1470
  1002  001A52                     u1475:
  1003  001A52  90D8               	bcf	status,0,c
  1004  001A54  323F               	rrcf	(??___fltol+3)^0,f,c
  1005  001A56  323E               	rrcf	(??___fltol+2)^0,f,c
  1006  001A58  323D               	rrcf	(??___fltol+1)^0,f,c
  1007  001A5A  323C               	rrcf	??___fltol^0,f,c
  1008  001A5C                     u1470:
  1009  001A5C  2EE8               	decfsz	wreg,f,c
  1010  001A5E  EF29  F00D         	goto	u1475
  1011  001A62  503C               	movf	??___fltol^0,w,c
  1012  001A64  6E40               	movwf	___fltol@sign1^0,c
  1013  001A66  8E3A               	bsf	(___fltol@f1+2)^0,7,c
  1014  001A68  0EFF               	movlw	255
  1015  001A6A  1638               	andwf	___fltol@f1^0,f,c
  1016  001A6C  0EFF               	movlw	255
  1017  001A6E  1639               	andwf	(___fltol@f1+1)^0,f,c
  1018  001A70  0EFF               	movlw	255
  1019  001A72  163A               	andwf	(___fltol@f1+2)^0,f,c
  1020  001A74  0E00               	movlw	0
  1021  001A76  163B               	andwf	(___fltol@f1+3)^0,f,c
  1022  001A78  0E96               	movlw	150
  1023  001A7A  5E41               	subwf	___fltol@exp1^0,f,c
  1024  001A7C  BE41               	btfsc	___fltol@exp1^0,7,c
  1025  001A7E  EF45  F00D         	goto	u1480
  1026  001A82  EF43  F00D         	goto	u1481
  1027  001A86                     u1481:
  1028  001A86  EF5B  F00D         	goto	l1586
  1029  001A8A                     u1480:
  1030  001A8A  5041               	movf	___fltol@exp1^0,w,c
  1031  001A8C  0A80               	xorlw	128
  1032  001A8E  0F97               	addlw	151
  1033  001A90  B0D8               	btfsc	status,0,c
  1034  001A92  EF4D  F00D         	goto	u1491
  1035  001A96  EF4F  F00D         	goto	u1490
  1036  001A9A                     u1491:
  1037  001A9A  EF51  F00D         	goto	l1582
  1038  001A9E                     u1490:
  1039  001A9E  EF14  F00D         	goto	l1562
  1040  001AA2                     l1582:
  1041  001AA2  90D8               	bcf	status,0,c
  1042  001AA4  323B               	rrcf	(___fltol@f1+3)^0,f,c
  1043  001AA6  323A               	rrcf	(___fltol@f1+2)^0,f,c
  1044  001AA8  3239               	rrcf	(___fltol@f1+1)^0,f,c
  1045  001AAA  3238               	rrcf	___fltol@f1^0,f,c
  1046  001AAC  3E41               	incfsz	___fltol@exp1^0,f,c
  1047  001AAE  EF51  F00D         	goto	l1582
  1048  001AB2  EF73  F00D         	goto	l1596
  1049  001AB6                     l1586:
  1050  001AB6  0E1F               	movlw	31
  1051  001AB8  6441               	cpfsgt	___fltol@exp1^0,c
  1052  001ABA  EF61  F00D         	goto	u1501
  1053  001ABE  EF63  F00D         	goto	u1500
  1054  001AC2                     u1501:
  1055  001AC2  EF6B  F00D         	goto	l1594
  1056  001AC6                     u1500:
  1057  001AC6  EF14  F00D         	goto	l1562
  1058  001ACA                     l1592:
  1059  001ACA  90D8               	bcf	status,0,c
  1060  001ACC  3638               	rlcf	___fltol@f1^0,f,c
  1061  001ACE  3639               	rlcf	(___fltol@f1+1)^0,f,c
  1062  001AD0  363A               	rlcf	(___fltol@f1+2)^0,f,c
  1063  001AD2  363B               	rlcf	(___fltol@f1+3)^0,f,c
  1064  001AD4  0641               	decf	___fltol@exp1^0,f,c
  1065  001AD6                     l1594:
  1066  001AD6  5041               	movf	___fltol@exp1^0,w,c
  1067  001AD8  A4D8               	btfss	status,2,c
  1068  001ADA  EF71  F00D         	goto	u1511
  1069  001ADE  EF73  F00D         	goto	u1510
  1070  001AE2                     u1511:
  1071  001AE2  EF65  F00D         	goto	l1592
  1072  001AE6                     u1510:
  1073  001AE6                     l1596:
  1074  001AE6  5040               	movf	___fltol@sign1^0,w,c
  1075  001AE8  B4D8               	btfsc	status,2,c
  1076  001AEA  EF79  F00D         	goto	u1521
  1077  001AEE  EF7B  F00D         	goto	u1520
  1078  001AF2                     u1521:
  1079  001AF2  EF83  F00D         	goto	l1600
  1080  001AF6                     u1520:
  1081  001AF6  1E3B               	comf	(___fltol@f1+3)^0,f,c
  1082  001AF8  1E3A               	comf	(___fltol@f1+2)^0,f,c
  1083  001AFA  1E39               	comf	(___fltol@f1+1)^0,f,c
  1084  001AFC  6C38               	negf	___fltol@f1^0,c
  1085  001AFE  0E00               	movlw	0
  1086  001B00  2239               	addwfc	(___fltol@f1+1)^0,f,c
  1087  001B02  223A               	addwfc	(___fltol@f1+2)^0,f,c
  1088  001B04  223B               	addwfc	(___fltol@f1+3)^0,f,c
  1089  001B06                     l1600:
  1090  001B06  C038  F038         	movff	___fltol@f1,?___fltol
  1091  001B0A  C039  F039         	movff	___fltol@f1+1,?___fltol+1
  1092  001B0E  C03A  F03A         	movff	___fltol@f1+2,?___fltol+2
  1093  001B12  C03B  F03B         	movff	___fltol@f1+3,?___fltol+3
  1094  001B16                     l364:
  1095  001B16  0012               	return		;funcret
  1096  001B18                     __end_of___fltol:
  1097                           	opt callstack 0
  1098                           
  1099 ;; *************** function ___fldiv *****************
  1100 ;; Defined at:
  1101 ;;		line 11 in file "/opt/microchip/xc8/v2.10/pic/sources/c99/common/sprcdiv.c"
  1102 ;; Parameters:    Size  Location     Type
  1103 ;;  b               4   14[COMRAM] long 
  1104 ;;  a               4   18[COMRAM] long 
  1105 ;; Auto vars:     Size  Location     Type
  1106 ;;  grs             4   33[COMRAM] unsigned long 
  1107 ;;  rem             4   26[COMRAM] unsigned long 
  1108 ;;  new_exp         2   31[COMRAM] short 
  1109 ;;  aexp            1   38[COMRAM] unsigned char 
  1110 ;;  bexp            1   37[COMRAM] unsigned char 
  1111 ;;  sign            1   30[COMRAM] unsigned char 
  1112 ;; Return value:  Size  Location     Type
  1113 ;;                  4   14[COMRAM] unsigned char 
  1114 ;; Registers used:
  1115 ;;		wreg, status,2, status,0
  1116 ;; Tracked objects:
  1117 ;;		On entry : 0/0
  1118 ;;		On exit  : 0/0
  1119 ;;		Unchanged: 0/0
  1120 ;; Data sizes:     COMRAM   BANK0   BANK1   BANK2   BANK3   BANK4   BANK5   BANK6   BANK7   BANK8   BANK9  BANK10  BANK1
      +1  BANK12  BANK13  BANK14  BANK15
  1121 ;;      Params:         8       0       0       0       0       0       0       0       0       0       0       0       
      +0       0       0       0       0
  1122 ;;      Locals:        13       0       0       0       0       0       0       0       0       0       0       0       
      +0       0       0       0       0
  1123 ;;      Temps:          4       0       0       0       0       0       0       0       0       0       0       0       
      +0       0       0       0       0
  1124 ;;      Totals:        25       0       0       0       0       0       0       0       0       0       0       0       
      +0       0       0       0       0
  1125 ;;Total ram usage:       25 bytes
  1126 ;; Hardware stack levels used:    1
  1127 ;; This function calls:
  1128 ;;		Nothing
  1129 ;; This function is called by:
  1130 ;;		_USART_config
  1131 ;; This function uses a non-reentrant model
  1132 ;;
  1133                           
  1134                           	psect	text7
  1135  0014C4                     __ptext7:
  1136                           	opt callstack 0
  1137  0014C4                     ___fldiv:
  1138                           	opt callstack 29
  1139  0014C4  5012               	movf	(___fldiv@b+3)^0,w,c
  1140  0014C6  0B80               	andlw	128
  1141  0014C8  6E1F               	movwf	___fldiv@sign^0,c
  1142  0014CA  5012               	movf	(___fldiv@b+3)^0,w,c
  1143  0014CC  2412               	addwf	(___fldiv@b+3)^0,w,c
  1144  0014CE  6E26               	movwf	___fldiv@bexp^0,c
  1145  0014D0  AE11               	btfss	(___fldiv@b+2)^0,7,c
  1146  0014D2  EF6D  F00A         	goto	u1231
  1147  0014D6  EF6F  F00A         	goto	u1230
  1148  0014DA                     u1231:
  1149  0014DA  EF70  F00A         	goto	l1428
  1150  0014DE                     u1230:
  1151  0014DE  8026               	bsf	___fldiv@bexp^0,0,c
  1152  0014E0                     l1428:
  1153  0014E0  5026               	movf	___fldiv@bexp^0,w,c
  1154  0014E2  B4D8               	btfsc	status,2,c
  1155  0014E4  EF76  F00A         	goto	u1241
  1156  0014E8  EF78  F00A         	goto	u1240
  1157  0014EC                     u1241:
  1158  0014EC  EF8D  F00A         	goto	l1438
  1159  0014F0                     u1240:
  1160  0014F0  2826               	incf	___fldiv@bexp^0,w,c
  1161  0014F2  A4D8               	btfss	status,2,c
  1162  0014F4  EF7E  F00A         	goto	u1251
  1163  0014F8  EF80  F00A         	goto	u1250
  1164  0014FC                     u1251:
  1165  0014FC  EF88  F00A         	goto	l1434
  1166  001500                     u1250:
  1167  001500  0E00               	movlw	0
  1168  001502  6E0F               	movwf	___fldiv@b^0,c
  1169  001504  0E00               	movlw	0
  1170  001506  6E10               	movwf	(___fldiv@b+1)^0,c
  1171  001508  0E00               	movlw	0
  1172  00150A  6E11               	movwf	(___fldiv@b+2)^0,c
  1173  00150C  0E00               	movlw	0
  1174  00150E  6E12               	movwf	(___fldiv@b+3)^0,c
  1175  001510                     l1434:
  1176  001510  8E11               	bsf	(___fldiv@b+2)^0,7,c
  1177  001512  0E00               	movlw	0
  1178  001514  6E12               	movwf	(___fldiv@b+3)^0,c
  1179  001516  EF95  F00A         	goto	l1440
  1180  00151A                     l1438:
  1181  00151A  0E00               	movlw	0
  1182  00151C  6E0F               	movwf	___fldiv@b^0,c
  1183  00151E  0E00               	movlw	0
  1184  001520  6E10               	movwf	(___fldiv@b+1)^0,c
  1185  001522  0E00               	movlw	0
  1186  001524  6E11               	movwf	(___fldiv@b+2)^0,c
  1187  001526  0E00               	movlw	0
  1188  001528  6E12               	movwf	(___fldiv@b+3)^0,c
  1189  00152A                     l1440:
  1190  00152A  5016               	movf	(___fldiv@a+3)^0,w,c
  1191  00152C  0B80               	andlw	128
  1192  00152E  1A1F               	xorwf	___fldiv@sign^0,f,c
  1193  001530  5016               	movf	(___fldiv@a+3)^0,w,c
  1194  001532  2416               	addwf	(___fldiv@a+3)^0,w,c
  1195  001534  6E27               	movwf	___fldiv@aexp^0,c
  1196  001536  AE15               	btfss	(___fldiv@a+2)^0,7,c
  1197  001538  EFA0  F00A         	goto	u1261
  1198  00153C  EFA2  F00A         	goto	u1260
  1199  001540                     u1261:
  1200  001540  EFA3  F00A         	goto	l1448
  1201  001544                     u1260:
  1202  001544  8027               	bsf	___fldiv@aexp^0,0,c
  1203  001546                     l1448:
  1204  001546  5027               	movf	___fldiv@aexp^0,w,c
  1205  001548  B4D8               	btfsc	status,2,c
  1206  00154A  EFA9  F00A         	goto	u1271
  1207  00154E  EFAB  F00A         	goto	u1270
  1208  001552                     u1271:
  1209  001552  EFC0  F00A         	goto	l1458
  1210  001556                     u1270:
  1211  001556  2827               	incf	___fldiv@aexp^0,w,c
  1212  001558  A4D8               	btfss	status,2,c
  1213  00155A  EFB1  F00A         	goto	u1281
  1214  00155E  EFB3  F00A         	goto	u1280
  1215  001562                     u1281:
  1216  001562  EFBB  F00A         	goto	l1454
  1217  001566                     u1280:
  1218  001566  0E00               	movlw	0
  1219  001568  6E13               	movwf	___fldiv@a^0,c
  1220  00156A  0E00               	movlw	0
  1221  00156C  6E14               	movwf	(___fldiv@a+1)^0,c
  1222  00156E  0E00               	movlw	0
  1223  001570  6E15               	movwf	(___fldiv@a+2)^0,c
  1224  001572  0E00               	movlw	0
  1225  001574  6E16               	movwf	(___fldiv@a+3)^0,c
  1226  001576                     l1454:
  1227  001576  8E15               	bsf	(___fldiv@a+2)^0,7,c
  1228  001578  0E00               	movlw	0
  1229  00157A  6E16               	movwf	(___fldiv@a+3)^0,c
  1230  00157C  EFC8  F00A         	goto	l1460
  1231  001580                     l1458:
  1232  001580  0E00               	movlw	0
  1233  001582  6E13               	movwf	___fldiv@a^0,c
  1234  001584  0E00               	movlw	0
  1235  001586  6E14               	movwf	(___fldiv@a+1)^0,c
  1236  001588  0E00               	movlw	0
  1237  00158A  6E15               	movwf	(___fldiv@a+2)^0,c
  1238  00158C  0E00               	movlw	0
  1239  00158E  6E16               	movwf	(___fldiv@a+3)^0,c
  1240  001590                     l1460:
  1241  001590  5013               	movf	___fldiv@a^0,w,c
  1242  001592  1014               	iorwf	(___fldiv@a+1)^0,w,c
  1243  001594  1015               	iorwf	(___fldiv@a+2)^0,w,c
  1244  001596  1016               	iorwf	(___fldiv@a+3)^0,w,c
  1245  001598  A4D8               	btfss	status,2,c
  1246  00159A  EFD1  F00A         	goto	u1291
  1247  00159E  EFD3  F00A         	goto	u1290
  1248  0015A2                     u1291:
  1249  0015A2  EFEB  F00A         	goto	l1472
  1250  0015A6                     u1290:
  1251  0015A6  0E00               	movlw	0
  1252  0015A8  6E0F               	movwf	___fldiv@b^0,c
  1253  0015AA  0E00               	movlw	0
  1254  0015AC  6E10               	movwf	(___fldiv@b+1)^0,c
  1255  0015AE  0E00               	movlw	0
  1256  0015B0  6E11               	movwf	(___fldiv@b+2)^0,c
  1257  0015B2  0E00               	movlw	0
  1258  0015B4  6E12               	movwf	(___fldiv@b+3)^0,c
  1259  0015B6  0E80               	movlw	128
  1260  0015B8  1211               	iorwf	(___fldiv@b+2)^0,f,c
  1261  0015BA  0E7F               	movlw	127
  1262  0015BC  1212               	iorwf	(___fldiv@b+3)^0,f,c
  1263  0015BE                     l1466:
  1264  0015BE  501F               	movf	___fldiv@sign^0,w,c
  1265  0015C0  1212               	iorwf	(___fldiv@b+3)^0,f,c
  1266  0015C2  C00F  F00F         	movff	___fldiv@b,?___fldiv
  1267  0015C6  C010  F010         	movff	___fldiv@b+1,?___fldiv+1
  1268  0015CA  C011  F011         	movff	___fldiv@b+2,?___fldiv+2
  1269  0015CE  C012  F012         	movff	___fldiv@b+3,?___fldiv+3
  1270  0015D2  EF2E  F00C         	goto	l649
  1271  0015D6                     l1472:
  1272  0015D6  5026               	movf	___fldiv@bexp^0,w,c
  1273  0015D8  A4D8               	btfss	status,2,c
  1274  0015DA  EFF1  F00A         	goto	u1301
  1275  0015DE  EFF3  F00A         	goto	u1300
  1276  0015E2                     u1301:
  1277  0015E2  EFFD  F00A         	goto	l1480
  1278  0015E6                     u1300:
  1279  0015E6  0E00               	movlw	0
  1280  0015E8  6E0F               	movwf	?___fldiv^0,c
  1281  0015EA  0E00               	movlw	0
  1282  0015EC  6E10               	movwf	(?___fldiv+1)^0,c
  1283  0015EE  0E00               	movlw	0
  1284  0015F0  6E11               	movwf	(?___fldiv+2)^0,c
  1285  0015F2  0E00               	movlw	0
  1286  0015F4  6E12               	movwf	(?___fldiv+3)^0,c
  1287  0015F6  EF2E  F00C         	goto	l649
  1288  0015FA                     l1480:
  1289  0015FA  5027               	movf	___fldiv@aexp^0,w,c
  1290  0015FC  C026  F017         	movff	___fldiv@bexp,??___fldiv
  1291  001600  6A18               	clrf	(??___fldiv+1)^0,c
  1292  001602  5E17               	subwf	??___fldiv^0,f,c
  1293  001604  0E00               	movlw	0
  1294  001606  5A18               	subwfb	(??___fldiv+1)^0,f,c
  1295  001608  0E7F               	movlw	127
  1296  00160A  2417               	addwf	??___fldiv^0,w,c
  1297  00160C  6E20               	movwf	___fldiv@new_exp^0,c
  1298  00160E  0E00               	movlw	0
  1299  001610  2018               	addwfc	(??___fldiv+1)^0,w,c
  1300  001612  6E21               	movwf	(___fldiv@new_exp+1)^0,c
  1301  001614  C00F  F01B         	movff	___fldiv@b,___fldiv@rem
  1302  001618  C010  F01C         	movff	___fldiv@b+1,___fldiv@rem+1
  1303  00161C  C011  F01D         	movff	___fldiv@b+2,___fldiv@rem+2
  1304  001620  C012  F01E         	movff	___fldiv@b+3,___fldiv@rem+3
  1305  001624  0E00               	movlw	0
  1306  001626  6E0F               	movwf	___fldiv@b^0,c
  1307  001628  0E00               	movlw	0
  1308  00162A  6E10               	movwf	(___fldiv@b+1)^0,c
  1309  00162C  0E00               	movlw	0
  1310  00162E  6E11               	movwf	(___fldiv@b+2)^0,c
  1311  001630  0E00               	movlw	0
  1312  001632  6E12               	movwf	(___fldiv@b+3)^0,c
  1313  001634  0E00               	movlw	0
  1314  001636  6E22               	movwf	___fldiv@grs^0,c
  1315  001638  0E00               	movlw	0
  1316  00163A  6E23               	movwf	(___fldiv@grs+1)^0,c
  1317  00163C  0E00               	movlw	0
  1318  00163E  6E24               	movwf	(___fldiv@grs+2)^0,c
  1319  001640  0E00               	movlw	0
  1320  001642  6E25               	movwf	(___fldiv@grs+3)^0,c
  1321  001644  0E00               	movlw	0
  1322  001646  6E27               	movwf	___fldiv@aexp^0,c
  1323  001648  EF5E  F00B         	goto	l651
  1324  00164C                     l1490:
  1325  00164C  5027               	movf	___fldiv@aexp^0,w,c
  1326  00164E  B4D8               	btfsc	status,2,c
  1327  001650  EF2C  F00B         	goto	u1311
  1328  001654  EF2E  F00B         	goto	u1310
  1329  001658                     u1311:
  1330  001658  EF45  F00B         	goto	l1498
  1331  00165C                     u1310:
  1332  00165C  90D8               	bcf	status,0,c
  1333  00165E  361B               	rlcf	___fldiv@rem^0,f,c
  1334  001660  361C               	rlcf	(___fldiv@rem+1)^0,f,c
  1335  001662  361D               	rlcf	(___fldiv@rem+2)^0,f,c
  1336  001664  361E               	rlcf	(___fldiv@rem+3)^0,f,c
  1337  001666  90D8               	bcf	status,0,c
  1338  001668  360F               	rlcf	___fldiv@b^0,f,c
  1339  00166A  3610               	rlcf	(___fldiv@b+1)^0,f,c
  1340  00166C  3611               	rlcf	(___fldiv@b+2)^0,f,c
  1341  00166E  3612               	rlcf	(___fldiv@b+3)^0,f,c
  1342  001670  AE25               	btfss	(___fldiv@grs+3)^0,7,c
  1343  001672  EF3D  F00B         	goto	u1321
  1344  001676  EF3F  F00B         	goto	u1320
  1345  00167A                     u1321:
  1346  00167A  EF40  F00B         	goto	l654
  1347  00167E                     u1320:
  1348  00167E  800F               	bsf	___fldiv@b^0,0,c
  1349  001680                     l654:
  1350  001680  90D8               	bcf	status,0,c
  1351  001682  3622               	rlcf	___fldiv@grs^0,f,c
  1352  001684  3623               	rlcf	(___fldiv@grs+1)^0,f,c
  1353  001686  3624               	rlcf	(___fldiv@grs+2)^0,f,c
  1354  001688  3625               	rlcf	(___fldiv@grs+3)^0,f,c
  1355  00168A                     l1498:
  1356  00168A  5013               	movf	___fldiv@a^0,w,c
  1357  00168C  5C1B               	subwf	___fldiv@rem^0,w,c
  1358  00168E  5014               	movf	(___fldiv@a+1)^0,w,c
  1359  001690  581C               	subwfb	(___fldiv@rem+1)^0,w,c
  1360  001692  5015               	movf	(___fldiv@a+2)^0,w,c
  1361  001694  581D               	subwfb	(___fldiv@rem+2)^0,w,c
  1362  001696  5016               	movf	(___fldiv@a+3)^0,w,c
  1363  001698  581E               	subwfb	(___fldiv@rem+3)^0,w,c
  1364  00169A  A0D8               	btfss	status,0,c
  1365  00169C  EF52  F00B         	goto	u1331
  1366  0016A0  EF54  F00B         	goto	u1330
  1367  0016A4                     u1331:
  1368  0016A4  EF5D  F00B         	goto	l1504
  1369  0016A8                     u1330:
  1370  0016A8  8C25               	bsf	(___fldiv@grs+3)^0,6,c
  1371  0016AA  5013               	movf	___fldiv@a^0,w,c
  1372  0016AC  5E1B               	subwf	___fldiv@rem^0,f,c
  1373  0016AE  5014               	movf	(___fldiv@a+1)^0,w,c
  1374  0016B0  5A1C               	subwfb	(___fldiv@rem+1)^0,f,c
  1375  0016B2  5015               	movf	(___fldiv@a+2)^0,w,c
  1376  0016B4  5A1D               	subwfb	(___fldiv@rem+2)^0,f,c
  1377  0016B6  5016               	movf	(___fldiv@a+3)^0,w,c
  1378  0016B8  5A1E               	subwfb	(___fldiv@rem+3)^0,f,c
  1379  0016BA                     l1504:
  1380  0016BA  2A27               	incf	___fldiv@aexp^0,f,c
  1381  0016BC                     l651:
  1382  0016BC  0E19               	movlw	25
  1383  0016BE  6427               	cpfsgt	___fldiv@aexp^0,c
  1384  0016C0  EF64  F00B         	goto	u1341
  1385  0016C4  EF66  F00B         	goto	u1340
  1386  0016C8                     u1341:
  1387  0016C8  EF26  F00B         	goto	l1490
  1388  0016CC                     u1340:
  1389  0016CC  501B               	movf	___fldiv@rem^0,w,c
  1390  0016CE  101C               	iorwf	(___fldiv@rem+1)^0,w,c
  1391  0016D0  101D               	iorwf	(___fldiv@rem+2)^0,w,c
  1392  0016D2  101E               	iorwf	(___fldiv@rem+3)^0,w,c
  1393  0016D4  B4D8               	btfsc	status,2,c
  1394  0016D6  EF6F  F00B         	goto	u1351
  1395  0016DA  EF71  F00B         	goto	u1350
  1396  0016DE                     u1351:
  1397  0016DE  EF89  F00B         	goto	l1516
  1398  0016E2                     u1350:
  1399  0016E2  8022               	bsf	___fldiv@grs^0,0,c
  1400  0016E4  EF89  F00B         	goto	l1516
  1401  0016E8                     l1510:
  1402  0016E8  90D8               	bcf	status,0,c
  1403  0016EA  360F               	rlcf	___fldiv@b^0,f,c
  1404  0016EC  3610               	rlcf	(___fldiv@b+1)^0,f,c
  1405  0016EE  3611               	rlcf	(___fldiv@b+2)^0,f,c
  1406  0016F0  3612               	rlcf	(___fldiv@b+3)^0,f,c
  1407  0016F2  AE25               	btfss	(___fldiv@grs+3)^0,7,c
  1408  0016F4  EF7E  F00B         	goto	u1361
  1409  0016F8  EF80  F00B         	goto	u1360
  1410  0016FC                     u1361:
  1411  0016FC  EF81  F00B         	goto	l660
  1412  001700                     u1360:
  1413  001700  800F               	bsf	___fldiv@b^0,0,c
  1414  001702                     l660:
  1415  001702  90D8               	bcf	status,0,c
  1416  001704  3622               	rlcf	___fldiv@grs^0,f,c
  1417  001706  3623               	rlcf	(___fldiv@grs+1)^0,f,c
  1418  001708  3624               	rlcf	(___fldiv@grs+2)^0,f,c
  1419  00170A  3625               	rlcf	(___fldiv@grs+3)^0,f,c
  1420  00170C  0620               	decf	___fldiv@new_exp^0,f,c
  1421  00170E  A0D8               	btfss	status,0,c
  1422  001710  0621               	decf	(___fldiv@new_exp+1)^0,f,c
  1423  001712                     l1516:
  1424  001712  AE11               	btfss	(___fldiv@b+2)^0,7,c
  1425  001714  EF8E  F00B         	goto	u1371
  1426  001718  EF90  F00B         	goto	u1370
  1427  00171C                     u1371:
  1428  00171C  EF74  F00B         	goto	l1510
  1429  001720                     u1370:
  1430  001720  0E00               	movlw	0
  1431  001722  6E27               	movwf	___fldiv@aexp^0,c
  1432  001724  AE25               	btfss	(___fldiv@grs+3)^0,7,c
  1433  001726  EF97  F00B         	goto	u1381
  1434  00172A  EF99  F00B         	goto	u1380
  1435  00172E                     u1381:
  1436  00172E  EFBD  F00B         	goto	l662
  1437  001732                     u1380:
  1438  001732  0EFF               	movlw	255
  1439  001734  1422               	andwf	___fldiv@grs^0,w,c
  1440  001736  6E17               	movwf	??___fldiv^0,c
  1441  001738  0EFF               	movlw	255
  1442  00173A  1423               	andwf	(___fldiv@grs+1)^0,w,c
  1443  00173C  6E18               	movwf	(??___fldiv+1)^0,c
  1444  00173E  0EFF               	movlw	255
  1445  001740  1424               	andwf	(___fldiv@grs+2)^0,w,c
  1446  001742  6E19               	movwf	(??___fldiv+2)^0,c
  1447  001744  0E7F               	movlw	127
  1448  001746  1425               	andwf	(___fldiv@grs+3)^0,w,c
  1449  001748  6E1A               	movwf	(??___fldiv+3)^0,c
  1450  00174A  5017               	movf	??___fldiv^0,w,c
  1451  00174C  1018               	iorwf	(??___fldiv+1)^0,w,c
  1452  00174E  1019               	iorwf	(??___fldiv+2)^0,w,c
  1453  001750  101A               	iorwf	(??___fldiv+3)^0,w,c
  1454  001752  B4D8               	btfsc	status,2,c
  1455  001754  EFAE  F00B         	goto	u1391
  1456  001758  EFB0  F00B         	goto	u1390
  1457  00175C                     u1391:
  1458  00175C  EFB4  F00B         	goto	l663
  1459  001760                     u1390:
  1460  001760                     l1524:
  1461  001760  0E01               	movlw	1
  1462  001762  6E27               	movwf	___fldiv@aexp^0,c
  1463  001764  EFBD  F00B         	goto	l662
  1464  001768                     l663:
  1465  001768  A00F               	btfss	___fldiv@b^0,0,c
  1466  00176A  EFB9  F00B         	goto	u1401
  1467  00176E  EFBB  F00B         	goto	u1400
  1468  001772                     u1401:
  1469  001772  EFBD  F00B         	goto	l662
  1470  001776                     u1400:
  1471  001776  EFB0  F00B         	goto	l1524
  1472  00177A                     l662:
  1473  00177A  5027               	movf	___fldiv@aexp^0,w,c
  1474  00177C  B4D8               	btfsc	status,2,c
  1475  00177E  EFC3  F00B         	goto	u1411
  1476  001782  EFC5  F00B         	goto	u1410
  1477  001786                     u1411:
  1478  001786  EFE9  F00B         	goto	l1536
  1479  00178A                     u1410:
  1480  00178A  0E01               	movlw	1
  1481  00178C  260F               	addwf	___fldiv@b^0,f,c
  1482  00178E  0E00               	movlw	0
  1483  001790  2210               	addwfc	(___fldiv@b+1)^0,f,c
  1484  001792  2211               	addwfc	(___fldiv@b+2)^0,f,c
  1485  001794  2212               	addwfc	(___fldiv@b+3)^0,f,c
  1486  001796  A012               	btfss	(___fldiv@b+3)^0,0,c
  1487  001798  EFD0  F00B         	goto	u1421
  1488  00179C  EFD2  F00B         	goto	u1420
  1489  0017A0                     u1421:
  1490  0017A0  EFE9  F00B         	goto	l1536
  1491  0017A4                     u1420:
  1492  0017A4  C00F  F017         	movff	___fldiv@b,??___fldiv
  1493  0017A8  C010  F018         	movff	___fldiv@b+1,??___fldiv+1
  1494  0017AC  C011  F019         	movff	___fldiv@b+2,??___fldiv+2
  1495  0017B0  C012  F01A         	movff	___fldiv@b+3,??___fldiv+3
  1496  0017B4  341A               	rlcf	(??___fldiv+3)^0,w,c
  1497  0017B6  321A               	rrcf	(??___fldiv+3)^0,f,c
  1498  0017B8  3219               	rrcf	(??___fldiv+2)^0,f,c
  1499  0017BA  3218               	rrcf	(??___fldiv+1)^0,f,c
  1500  0017BC  3217               	rrcf	??___fldiv^0,f,c
  1501  0017BE  C017  F00F         	movff	??___fldiv,___fldiv@b
  1502  0017C2  C018  F010         	movff	??___fldiv+1,___fldiv@b+1
  1503  0017C6  C019  F011         	movff	??___fldiv+2,___fldiv@b+2
  1504  0017CA  C01A  F012         	movff	??___fldiv+3,___fldiv@b+3
  1505  0017CE  4A20               	infsnz	___fldiv@new_exp^0,f,c
  1506  0017D0  2A21               	incf	(___fldiv@new_exp+1)^0,f,c
  1507  0017D2                     l1536:
  1508  0017D2  BE21               	btfsc	(___fldiv@new_exp+1)^0,7,c
  1509  0017D4  EFF4  F00B         	goto	u1431
  1510  0017D8  5021               	movf	(___fldiv@new_exp+1)^0,w,c
  1511  0017DA  E108               	bnz	u1430
  1512  0017DC  2820               	incf	___fldiv@new_exp^0,w,c
  1513  0017DE  A0D8               	btfss	status,0,c
  1514  0017E0  EFF4  F00B         	goto	u1431
  1515  0017E4  EFF6  F00B         	goto	u1430
  1516  0017E8                     u1431:
  1517  0017E8  EF01  F00C         	goto	l1540
  1518  0017EC                     u1430:
  1519  0017EC  0E00               	movlw	0
  1520  0017EE  6E21               	movwf	(___fldiv@new_exp+1)^0,c
  1521  0017F0  6820               	setf	___fldiv@new_exp^0,c
  1522  0017F2  0E00               	movlw	0
  1523  0017F4  6E0F               	movwf	___fldiv@b^0,c
  1524  0017F6  0E00               	movlw	0
  1525  0017F8  6E10               	movwf	(___fldiv@b+1)^0,c
  1526  0017FA  0E00               	movlw	0
  1527  0017FC  6E11               	movwf	(___fldiv@b+2)^0,c
  1528  0017FE  0E00               	movlw	0
  1529  001800  6E12               	movwf	(___fldiv@b+3)^0,c
  1530  001802                     l1540:
  1531  001802  BE21               	btfsc	(___fldiv@new_exp+1)^0,7,c
  1532  001804  EF0E  F00C         	goto	u1440
  1533  001808  5021               	movf	(___fldiv@new_exp+1)^0,w,c
  1534  00180A  E106               	bnz	u1441
  1535  00180C  0420               	decf	___fldiv@new_exp^0,w,c
  1536  00180E  B0D8               	btfsc	status,0,c
  1537  001810  EF0C  F00C         	goto	u1441
  1538  001814  EF0E  F00C         	goto	u1440
  1539  001818                     u1441:
  1540  001818  EF1C  F00C         	goto	l1544
  1541  00181C                     u1440:
  1542  00181C  0E00               	movlw	0
  1543  00181E  6E21               	movwf	(___fldiv@new_exp+1)^0,c
  1544  001820  0E00               	movlw	0
  1545  001822  6E20               	movwf	___fldiv@new_exp^0,c
  1546  001824  0E00               	movlw	0
  1547  001826  6E0F               	movwf	___fldiv@b^0,c
  1548  001828  0E00               	movlw	0
  1549  00182A  6E10               	movwf	(___fldiv@b+1)^0,c
  1550  00182C  0E00               	movlw	0
  1551  00182E  6E11               	movwf	(___fldiv@b+2)^0,c
  1552  001830  0E00               	movlw	0
  1553  001832  6E12               	movwf	(___fldiv@b+3)^0,c
  1554  001834  0E00               	movlw	0
  1555  001836  6E1F               	movwf	___fldiv@sign^0,c
  1556  001838                     l1544:
  1557  001838  C020  F026         	movff	___fldiv@new_exp,___fldiv@bexp
  1558  00183C  A026               	btfss	___fldiv@bexp^0,0,c
  1559  00183E  EF23  F00C         	goto	u1451
  1560  001842  EF25  F00C         	goto	u1450
  1561  001846                     u1451:
  1562  001846  EF28  F00C         	goto	l1550
  1563  00184A                     u1450:
  1564  00184A  8E11               	bsf	(___fldiv@b+2)^0,7,c
  1565  00184C  EF29  F00C         	goto	l1552
  1566  001850                     l1550:
  1567  001850  9E11               	bcf	(___fldiv@b+2)^0,7,c
  1568  001852                     l1552:
  1569  001852  90D8               	bcf	status,0,c
  1570  001854  3026               	rrcf	___fldiv@bexp^0,w,c
  1571  001856  6E12               	movwf	(___fldiv@b+3)^0,c
  1572  001858  EFDF  F00A         	goto	l1466
  1573  00185C                     l649:
  1574  00185C  0012               	return		;funcret
  1575  00185E                     __end_of___fldiv:
  1576                           	opt callstack 0
  1577                           
  1578 ;; *************** function ___fladd *****************
  1579 ;; Defined at:
  1580 ;;		line 10 in file "/opt/microchip/xc8/v2.10/pic/sources/c99/common/sprcadd.c"
  1581 ;; Parameters:    Size  Location     Type
  1582 ;;  b               4   39[COMRAM] unsigned char 
  1583 ;;  a               4   43[COMRAM] unsigned char 
  1584 ;; Auto vars:     Size  Location     Type
  1585 ;;  grs             1   54[COMRAM] unsigned char 
  1586 ;;  bexp            1   53[COMRAM] unsigned char 
  1587 ;;  aexp            1   52[COMRAM] unsigned char 
  1588 ;;  signs           1   51[COMRAM] unsigned char 
  1589 ;; Return value:  Size  Location     Type
  1590 ;;                  4   39[COMRAM] unsigned char 
  1591 ;; Registers used:
  1592 ;;		wreg, status,2, status,0
  1593 ;; Tracked objects:
  1594 ;;		On entry : 0/0
  1595 ;;		On exit  : 0/0
  1596 ;;		Unchanged: 0/0
  1597 ;; Data sizes:     COMRAM   BANK0   BANK1   BANK2   BANK3   BANK4   BANK5   BANK6   BANK7   BANK8   BANK9  BANK10  BANK1
      +1  BANK12  BANK13  BANK14  BANK15
  1598 ;;      Params:         8       0       0       0       0       0       0       0       0       0       0       0       
      +0       0       0       0       0
  1599 ;;      Locals:         4       0       0       0       0       0       0       0       0       0       0       0       
      +0       0       0       0       0
  1600 ;;      Temps:          4       0       0       0       0       0       0       0       0       0       0       0       
      +0       0       0       0       0
  1601 ;;      Totals:        16       0       0       0       0       0       0       0       0       0       0       0       
      +0       0       0       0       0
  1602 ;;Total ram usage:       16 bytes
  1603 ;; Hardware stack levels used:    1
  1604 ;; This function calls:
  1605 ;;		Nothing
  1606 ;; This function is called by:
  1607 ;;		_USART_config
  1608 ;; This function uses a non-reentrant model
  1609 ;;
  1610                           
  1611                           	psect	text8
  1612  001004                     __ptext8:
  1613                           	opt callstack 0
  1614  001004                     ___fladd:
  1615                           	opt callstack 29
  1616  001004  502B               	movf	(___fladd@b+3)^0,w,c
  1617  001006  0B80               	andlw	128
  1618  001008  6E34               	movwf	___fladd@signs^0,c
  1619  00100A  502B               	movf	(___fladd@b+3)^0,w,c
  1620  00100C  242B               	addwf	(___fladd@b+3)^0,w,c
  1621  00100E  6E36               	movwf	___fladd@bexp^0,c
  1622  001010  AE2A               	btfss	(___fladd@b+2)^0,7,c
  1623  001012  EF0D  F008         	goto	u841
  1624  001016  EF0F  F008         	goto	u840
  1625  00101A                     u841:
  1626  00101A  EF10  F008         	goto	l1226
  1627  00101E                     u840:
  1628  00101E  8036               	bsf	___fladd@bexp^0,0,c
  1629  001020                     l1226:
  1630  001020  5036               	movf	___fladd@bexp^0,w,c
  1631  001022  B4D8               	btfsc	status,2,c
  1632  001024  EF16  F008         	goto	u851
  1633  001028  EF18  F008         	goto	u850
  1634  00102C                     u851:
  1635  00102C  EF2D  F008         	goto	l1236
  1636  001030                     u850:
  1637  001030  2836               	incf	___fladd@bexp^0,w,c
  1638  001032  A4D8               	btfss	status,2,c
  1639  001034  EF1E  F008         	goto	u861
  1640  001038  EF20  F008         	goto	u860
  1641  00103C                     u861:
  1642  00103C  EF28  F008         	goto	l1232
  1643  001040                     u860:
  1644  001040  0E00               	movlw	0
  1645  001042  6E28               	movwf	___fladd@b^0,c
  1646  001044  0E00               	movlw	0
  1647  001046  6E29               	movwf	(___fladd@b+1)^0,c
  1648  001048  0E00               	movlw	0
  1649  00104A  6E2A               	movwf	(___fladd@b+2)^0,c
  1650  00104C  0E00               	movlw	0
  1651  00104E  6E2B               	movwf	(___fladd@b+3)^0,c
  1652  001050                     l1232:
  1653  001050  8E2A               	bsf	(___fladd@b+2)^0,7,c
  1654  001052  0E00               	movlw	0
  1655  001054  6E2B               	movwf	(___fladd@b+3)^0,c
  1656  001056  EF35  F008         	goto	l1238
  1657  00105A                     l1236:
  1658  00105A  0E00               	movlw	0
  1659  00105C  6E28               	movwf	___fladd@b^0,c
  1660  00105E  0E00               	movlw	0
  1661  001060  6E29               	movwf	(___fladd@b+1)^0,c
  1662  001062  0E00               	movlw	0
  1663  001064  6E2A               	movwf	(___fladd@b+2)^0,c
  1664  001066  0E00               	movlw	0
  1665  001068  6E2B               	movwf	(___fladd@b+3)^0,c
  1666  00106A                     l1238:
  1667  00106A  502F               	movf	(___fladd@a+3)^0,w,c
  1668  00106C  0B80               	andlw	128
  1669  00106E  6E35               	movwf	___fladd@aexp^0,c
  1670  001070  5034               	movf	___fladd@signs^0,w,c
  1671  001072  1835               	xorwf	___fladd@aexp^0,w,c
  1672  001074  B4D8               	btfsc	status,2,c
  1673  001076  EF3F  F008         	goto	u871
  1674  00107A  EF41  F008         	goto	u870
  1675  00107E                     u871:
  1676  00107E  EF42  F008         	goto	l1244
  1677  001082                     u870:
  1678  001082  8C34               	bsf	___fladd@signs^0,6,c
  1679  001084                     l1244:
  1680  001084  502F               	movf	(___fladd@a+3)^0,w,c
  1681  001086  242F               	addwf	(___fladd@a+3)^0,w,c
  1682  001088  6E35               	movwf	___fladd@aexp^0,c
  1683  00108A  AE2E               	btfss	(___fladd@a+2)^0,7,c
  1684  00108C  EF4A  F008         	goto	u881
  1685  001090  EF4C  F008         	goto	u880
  1686  001094                     u881:
  1687  001094  EF4D  F008         	goto	l1250
  1688  001098                     u880:
  1689  001098  8035               	bsf	___fladd@aexp^0,0,c
  1690  00109A                     l1250:
  1691  00109A  5035               	movf	___fladd@aexp^0,w,c
  1692  00109C  B4D8               	btfsc	status,2,c
  1693  00109E  EF53  F008         	goto	u891
  1694  0010A2  EF55  F008         	goto	u890
  1695  0010A6                     u891:
  1696  0010A6  EF6A  F008         	goto	l1260
  1697  0010AA                     u890:
  1698  0010AA  2835               	incf	___fladd@aexp^0,w,c
  1699  0010AC  A4D8               	btfss	status,2,c
  1700  0010AE  EF5B  F008         	goto	u901
  1701  0010B2  EF5D  F008         	goto	u900
  1702  0010B6                     u901:
  1703  0010B6  EF65  F008         	goto	l1256
  1704  0010BA                     u900:
  1705  0010BA  0E00               	movlw	0
  1706  0010BC  6E2C               	movwf	___fladd@a^0,c
  1707  0010BE  0E00               	movlw	0
  1708  0010C0  6E2D               	movwf	(___fladd@a+1)^0,c
  1709  0010C2  0E00               	movlw	0
  1710  0010C4  6E2E               	movwf	(___fladd@a+2)^0,c
  1711  0010C6  0E00               	movlw	0
  1712  0010C8  6E2F               	movwf	(___fladd@a+3)^0,c
  1713  0010CA                     l1256:
  1714  0010CA  8E2E               	bsf	(___fladd@a+2)^0,7,c
  1715  0010CC  0E00               	movlw	0
  1716  0010CE  6E2F               	movwf	(___fladd@a+3)^0,c
  1717  0010D0  EF72  F008         	goto	l1262
  1718  0010D4                     l1260:
  1719  0010D4  0E00               	movlw	0
  1720  0010D6  6E2C               	movwf	___fladd@a^0,c
  1721  0010D8  0E00               	movlw	0
  1722  0010DA  6E2D               	movwf	(___fladd@a+1)^0,c
  1723  0010DC  0E00               	movlw	0
  1724  0010DE  6E2E               	movwf	(___fladd@a+2)^0,c
  1725  0010E0  0E00               	movlw	0
  1726  0010E2  6E2F               	movwf	(___fladd@a+3)^0,c
  1727  0010E4                     l1262:
  1728  0010E4  5036               	movf	___fladd@bexp^0,w,c
  1729  0010E6  5C35               	subwf	___fladd@aexp^0,w,c
  1730  0010E8  B0D8               	btfsc	status,0,c
  1731  0010EA  EF79  F008         	goto	u911
  1732  0010EE  EF7B  F008         	goto	u910
  1733  0010F2                     u911:
  1734  0010F2  EFA2  F008         	goto	l1298
  1735  0010F6                     u910:
  1736  0010F6  AC34               	btfss	___fladd@signs^0,6,c
  1737  0010F8  EF80  F008         	goto	u921
  1738  0010FC  EF82  F008         	goto	u920
  1739  001100                     u921:
  1740  001100  EF84  F008         	goto	l1268
  1741  001104                     u920:
  1742  001104  0E80               	movlw	128
  1743  001106  1A34               	xorwf	___fladd@signs^0,f,c
  1744  001108                     l1268:
  1745  001108  C036  F037         	movff	___fladd@bexp,___fladd@grs
  1746  00110C  C035  F036         	movff	___fladd@aexp,___fladd@bexp
  1747  001110  C037  F035         	movff	___fladd@grs,___fladd@aexp
  1748  001114  C028  F037         	movff	___fladd@b,___fladd@grs
  1749  001118  C02C  F028         	movff	___fladd@a,___fladd@b
  1750  00111C  C037  F02C         	movff	___fladd@grs,___fladd@a
  1751  001120  C029  F037         	movff	___fladd@b+1,___fladd@grs
  1752  001124  C02D  F029         	movff	___fladd@a+1,___fladd@b+1
  1753  001128  C037  F02D         	movff	___fladd@grs,___fladd@a+1
  1754  00112C  C02A  F037         	movff	___fladd@b+2,___fladd@grs
  1755  001130  C02E  F02A         	movff	___fladd@a+2,___fladd@b+2
  1756  001134  C037  F02E         	movff	___fladd@grs,___fladd@a+2
  1757  001138  C02B  F037         	movff	___fladd@b+3,___fladd@grs
  1758  00113C  C02F  F02B         	movff	___fladd@a+3,___fladd@b+3
  1759  001140  C037  F02F         	movff	___fladd@grs,___fladd@a+3
  1760  001144                     l1298:
  1761  001144  0E00               	movlw	0
  1762  001146  6E37               	movwf	___fladd@grs^0,c
  1763  001148  5036               	movf	___fladd@bexp^0,w,c
  1764  00114A  C035  F030         	movff	___fladd@aexp,??___fladd
  1765  00114E  6A31               	clrf	(??___fladd+1)^0,c
  1766  001150  5E30               	subwf	??___fladd^0,f,c
  1767  001152  0E00               	movlw	0
  1768  001154  5A31               	subwfb	(??___fladd+1)^0,f,c
  1769  001156  BE31               	btfsc	(??___fladd+1)^0,7,c
  1770  001158  EFB7  F008         	goto	u931
  1771  00115C  5031               	movf	(??___fladd+1)^0,w,c
  1772  00115E  E109               	bnz	u930
  1773  001160  0E1A               	movlw	26
  1774  001162  5C30               	subwf	??___fladd^0,w,c
  1775  001164  A0D8               	btfss	status,0,c
  1776  001166  EFB7  F008         	goto	u931
  1777  00116A  EFB9  F008         	goto	u930
  1778  00116E                     u931:
  1779  00116E  EFF0  F008         	goto	l596
  1780  001172                     u930:
  1781  001172  5028               	movf	___fladd@b^0,w,c
  1782  001174  1029               	iorwf	(___fladd@b+1)^0,w,c
  1783  001176  102A               	iorwf	(___fladd@b+2)^0,w,c
  1784  001178  102B               	iorwf	(___fladd@b+3)^0,w,c
  1785  00117A  A4D8               	btfss	status,2,c
  1786  00117C  EFC2  F008         	goto	u941
  1787  001180  EFC5  F008         	goto	u940
  1788  001184                     u941:
  1789  001184  0E01               	movlw	1
  1790  001186  EFC6  F008         	goto	u950
  1791  00118A                     u940:
  1792  00118A  0E00               	movlw	0
  1793  00118C                     u950:
  1794  00118C  6E37               	movwf	___fladd@grs^0,c
  1795  00118E  0E00               	movlw	0
  1796  001190  6E28               	movwf	___fladd@b^0,c
  1797  001192  0E00               	movlw	0
  1798  001194  6E29               	movwf	(___fladd@b+1)^0,c
  1799  001196  0E00               	movlw	0
  1800  001198  6E2A               	movwf	(___fladd@b+2)^0,c
  1801  00119A  0E00               	movlw	0
  1802  00119C  6E2B               	movwf	(___fladd@b+3)^0,c
  1803  00119E  C035  F036         	movff	___fladd@aexp,___fladd@bexp
  1804  0011A2  EFF9  F008         	goto	l595
  1805  0011A6                     l597:
  1806  0011A6  A037               	btfss	___fladd@grs^0,0,c
  1807  0011A8  EFD8  F008         	goto	u961
  1808  0011AC  EFDA  F008         	goto	u960
  1809  0011B0                     u961:
  1810  0011B0  EFE0  F008         	goto	l1310
  1811  0011B4                     u960:
  1812  0011B4  90D8               	bcf	status,0,c
  1813  0011B6  3037               	rrcf	___fladd@grs^0,w,c
  1814  0011B8  0901               	iorlw	1
  1815  0011BA  6E37               	movwf	___fladd@grs^0,c
  1816  0011BC  EFE2  F008         	goto	l1312
  1817  0011C0                     l1310:
  1818  0011C0  90D8               	bcf	status,0,c
  1819  0011C2  3237               	rrcf	___fladd@grs^0,f,c
  1820  0011C4                     l1312:
  1821  0011C4  A028               	btfss	___fladd@b^0,0,c
  1822  0011C6  EFE7  F008         	goto	u971
  1823  0011CA  EFE9  F008         	goto	u970
  1824  0011CE                     u971:
  1825  0011CE  EFEA  F008         	goto	l1316
  1826  0011D2                     u970:
  1827  0011D2  8E37               	bsf	___fladd@grs^0,7,c
  1828  0011D4                     l1316:
  1829  0011D4  342B               	rlcf	(___fladd@b+3)^0,w,c
  1830  0011D6  322B               	rrcf	(___fladd@b+3)^0,f,c
  1831  0011D8  322A               	rrcf	(___fladd@b+2)^0,f,c
  1832  0011DA  3229               	rrcf	(___fladd@b+1)^0,f,c
  1833  0011DC  3228               	rrcf	___fladd@b^0,f,c
  1834  0011DE  2A36               	incf	___fladd@bexp^0,f,c
  1835  0011E0                     l596:
  1836  0011E0  5035               	movf	___fladd@aexp^0,w,c
  1837  0011E2  5C36               	subwf	___fladd@bexp^0,w,c
  1838  0011E4  A0D8               	btfss	status,0,c
  1839  0011E6  EFF7  F008         	goto	u981
  1840  0011EA  EFF9  F008         	goto	u980
  1841  0011EE                     u981:
  1842  0011EE  EFD3  F008         	goto	l597
  1843  0011F2                     u980:
  1844  0011F2                     l595:
  1845  0011F2  BC34               	btfsc	___fladd@signs^0,6,c
  1846  0011F4  EFFE  F008         	goto	u991
  1847  0011F8  EF00  F009         	goto	u990
  1848  0011FC                     u991:
  1849  0011FC  EF40  F009         	goto	l1344
  1850  001200                     u990:
  1851  001200  5036               	movf	___fladd@bexp^0,w,c
  1852  001202  A4D8               	btfss	status,2,c
  1853  001204  EF06  F009         	goto	u1001
  1854  001208  EF08  F009         	goto	u1000
  1855  00120C                     u1001:
  1856  00120C  EF12  F009         	goto	l1326
  1857  001210                     u1000:
  1858  001210  0E00               	movlw	0
  1859  001212  6E28               	movwf	?___fladd^0,c
  1860  001214  0E00               	movlw	0
  1861  001216  6E29               	movwf	(?___fladd+1)^0,c
  1862  001218  0E00               	movlw	0
  1863  00121A  6E2A               	movwf	(?___fladd+2)^0,c
  1864  00121C  0E00               	movlw	0
  1865  00121E  6E2B               	movwf	(?___fladd+3)^0,c
  1866  001220  EF61  F00A         	goto	l604
  1867  001224                     l1326:
  1868  001224  502C               	movf	___fladd@a^0,w,c
  1869  001226  2628               	addwf	___fladd@b^0,f,c
  1870  001228  502D               	movf	(___fladd@a+1)^0,w,c
  1871  00122A  2229               	addwfc	(___fladd@b+1)^0,f,c
  1872  00122C  502E               	movf	(___fladd@a+2)^0,w,c
  1873  00122E  222A               	addwfc	(___fladd@b+2)^0,f,c
  1874  001230  502F               	movf	(___fladd@a+3)^0,w,c
  1875  001232  222B               	addwfc	(___fladd@b+3)^0,f,c
  1876  001234  A02B               	btfss	(___fladd@b+3)^0,0,c
  1877  001236  EF1F  F009         	goto	u1011
  1878  00123A  EF21  F009         	goto	u1010
  1879  00123E                     u1011:
  1880  00123E  EFCD  F009         	goto	l1380
  1881  001242                     u1010:
  1882  001242  A037               	btfss	___fladd@grs^0,0,c
  1883  001244  EF26  F009         	goto	u1021
  1884  001248  EF28  F009         	goto	u1020
  1885  00124C                     u1021:
  1886  00124C  EF2E  F009         	goto	l1334
  1887  001250                     u1020:
  1888  001250  90D8               	bcf	status,0,c
  1889  001252  3037               	rrcf	___fladd@grs^0,w,c
  1890  001254  0901               	iorlw	1
  1891  001256  6E37               	movwf	___fladd@grs^0,c
  1892  001258  EF30  F009         	goto	l1336
  1893  00125C                     l1334:
  1894  00125C  90D8               	bcf	status,0,c
  1895  00125E  3237               	rrcf	___fladd@grs^0,f,c
  1896  001260                     l1336:
  1897  001260  A028               	btfss	___fladd@b^0,0,c
  1898  001262  EF35  F009         	goto	u1031
  1899  001266  EF37  F009         	goto	u1030
  1900  00126A                     u1031:
  1901  00126A  EF38  F009         	goto	l1340
  1902  00126E                     u1030:
  1903  00126E  8E37               	bsf	___fladd@grs^0,7,c
  1904  001270                     l1340:
  1905  001270  342B               	rlcf	(___fladd@b+3)^0,w,c
  1906  001272  322B               	rrcf	(___fladd@b+3)^0,f,c
  1907  001274  322A               	rrcf	(___fladd@b+2)^0,f,c
  1908  001276  3229               	rrcf	(___fladd@b+1)^0,f,c
  1909  001278  3228               	rrcf	___fladd@b^0,f,c
  1910  00127A  2A36               	incf	___fladd@bexp^0,f,c
  1911  00127C  EFCD  F009         	goto	l1380
  1912  001280                     l1344:
  1913  001280  502C               	movf	___fladd@a^0,w,c
  1914  001282  5C28               	subwf	___fladd@b^0,w,c
  1915  001284  502D               	movf	(___fladd@a+1)^0,w,c
  1916  001286  5829               	subwfb	(___fladd@b+1)^0,w,c
  1917  001288  502E               	movf	(___fladd@a+2)^0,w,c
  1918  00128A  582A               	subwfb	(___fladd@b+2)^0,w,c
  1919  00128C  502B               	movf	(___fladd@b+3)^0,w,c
  1920  00128E  0A80               	xorlw	128
  1921  001290  6E30               	movwf	??___fladd^0,c
  1922  001292  502F               	movf	(___fladd@a+3)^0,w,c
  1923  001294  0A80               	xorlw	128
  1924  001296  5830               	subwfb	??___fladd^0,w,c
  1925  001298  B0D8               	btfsc	status,0,c
  1926  00129A  EF51  F009         	goto	u1041
  1927  00129E  EF53  F009         	goto	u1040
  1928  0012A2                     u1041:
  1929  0012A2  EF7E  F009         	goto	l1354
  1930  0012A6                     u1040:
  1931  0012A6  5028               	movf	___fladd@b^0,w,c
  1932  0012A8  5C2C               	subwf	___fladd@a^0,w,c
  1933  0012AA  6E30               	movwf	??___fladd^0,c
  1934  0012AC  5029               	movf	(___fladd@b+1)^0,w,c
  1935  0012AE  582D               	subwfb	(___fladd@a+1)^0,w,c
  1936  0012B0  6E31               	movwf	(??___fladd+1)^0,c
  1937  0012B2  502A               	movf	(___fladd@b+2)^0,w,c
  1938  0012B4  582E               	subwfb	(___fladd@a+2)^0,w,c
  1939  0012B6  6E32               	movwf	(??___fladd+2)^0,c
  1940  0012B8  502B               	movf	(___fladd@b+3)^0,w,c
  1941  0012BA  582F               	subwfb	(___fladd@a+3)^0,w,c
  1942  0012BC  6E33               	movwf	(??___fladd+3)^0,c
  1943  0012BE  0EFF               	movlw	255
  1944  0012C0  2430               	addwf	??___fladd^0,w,c
  1945  0012C2  6E28               	movwf	___fladd@b^0,c
  1946  0012C4  0EFF               	movlw	255
  1947  0012C6  2031               	addwfc	(??___fladd+1)^0,w,c
  1948  0012C8  6E29               	movwf	(___fladd@b+1)^0,c
  1949  0012CA  0EFF               	movlw	255
  1950  0012CC  2032               	addwfc	(??___fladd+2)^0,w,c
  1951  0012CE  6E2A               	movwf	(___fladd@b+2)^0,c
  1952  0012D0  0EFF               	movlw	255
  1953  0012D2  2033               	addwfc	(??___fladd+3)^0,w,c
  1954  0012D4  6E2B               	movwf	(___fladd@b+3)^0,c
  1955  0012D6  0E80               	movlw	128
  1956  0012D8  1A34               	xorwf	___fladd@signs^0,f,c
  1957  0012DA  6C37               	negf	___fladd@grs^0,c
  1958  0012DC  5037               	movf	___fladd@grs^0,w,c
  1959  0012DE  A4D8               	btfss	status,2,c
  1960  0012E0  EF74  F009         	goto	u1051
  1961  0012E4  EF76  F009         	goto	u1050
  1962  0012E8                     u1051:
  1963  0012E8  EF86  F009         	goto	l612
  1964  0012EC                     u1050:
  1965  0012EC  0E01               	movlw	1
  1966  0012EE  2628               	addwf	___fladd@b^0,f,c
  1967  0012F0  0E00               	movlw	0
  1968  0012F2  2229               	addwfc	(___fladd@b+1)^0,f,c
  1969  0012F4  222A               	addwfc	(___fladd@b+2)^0,f,c
  1970  0012F6  222B               	addwfc	(___fladd@b+3)^0,f,c
  1971  0012F8  EF86  F009         	goto	l612
  1972  0012FC                     l1354:
  1973  0012FC  502C               	movf	___fladd@a^0,w,c
  1974  0012FE  5E28               	subwf	___fladd@b^0,f,c
  1975  001300  502D               	movf	(___fladd@a+1)^0,w,c
  1976  001302  5A29               	subwfb	(___fladd@b+1)^0,f,c
  1977  001304  502E               	movf	(___fladd@a+2)^0,w,c
  1978  001306  5A2A               	subwfb	(___fladd@b+2)^0,f,c
  1979  001308  502F               	movf	(___fladd@a+3)^0,w,c
  1980  00130A  5A2B               	subwfb	(___fladd@b+3)^0,f,c
  1981  00130C                     l612:
  1982  00130C  5028               	movf	___fladd@b^0,w,c
  1983  00130E  1029               	iorwf	(___fladd@b+1)^0,w,c
  1984  001310  102A               	iorwf	(___fladd@b+2)^0,w,c
  1985  001312  102B               	iorwf	(___fladd@b+3)^0,w,c
  1986  001314  A4D8               	btfss	status,2,c
  1987  001316  EF8F  F009         	goto	u1061
  1988  00131A  EF91  F009         	goto	u1060
  1989  00131E                     u1061:
  1990  00131E  EFC6  F009         	goto	l1378
  1991  001322                     u1060:
  1992  001322  5037               	movf	___fladd@grs^0,w,c
  1993  001324  A4D8               	btfss	status,2,c
  1994  001326  EF97  F009         	goto	u1071
  1995  00132A  EF99  F009         	goto	u1070
  1996  00132E                     u1071:
  1997  00132E  EFC6  F009         	goto	l1378
  1998  001332                     u1070:
  1999  001332  0E00               	movlw	0
  2000  001334  6E28               	movwf	?___fladd^0,c
  2001  001336  0E00               	movlw	0
  2002  001338  6E29               	movwf	(?___fladd+1)^0,c
  2003  00133A  0E00               	movlw	0
  2004  00133C  6E2A               	movwf	(?___fladd+2)^0,c
  2005  00133E  0E00               	movlw	0
  2006  001340  6E2B               	movwf	(?___fladd+3)^0,c
  2007  001342  EF61  F00A         	goto	l604
  2008  001346                     l1362:
  2009  001346  90D8               	bcf	status,0,c
  2010  001348  3628               	rlcf	___fladd@b^0,f,c
  2011  00134A  3629               	rlcf	(___fladd@b+1)^0,f,c
  2012  00134C  362A               	rlcf	(___fladd@b+2)^0,f,c
  2013  00134E  362B               	rlcf	(___fladd@b+3)^0,f,c
  2014  001350  AE37               	btfss	___fladd@grs^0,7,c
  2015  001352  EFAD  F009         	goto	u1081
  2016  001356  EFAF  F009         	goto	u1080
  2017  00135A                     u1081:
  2018  00135A  EFB0  F009         	goto	l1368
  2019  00135E                     u1080:
  2020  00135E  8028               	bsf	___fladd@b^0,0,c
  2021  001360                     l1368:
  2022  001360  A037               	btfss	___fladd@grs^0,0,c
  2023  001362  EFB5  F009         	goto	u1091
  2024  001366  EFB7  F009         	goto	u1090
  2025  00136A                     u1091:
  2026  00136A  EFBB  F009         	goto	l1372
  2027  00136E                     u1090:
  2028  00136E  80D8               	bsf	status,0,c
  2029  001370  3637               	rlcf	___fladd@grs^0,f,c
  2030  001372  EFBD  F009         	goto	l1374
  2031  001376                     l1372:
  2032  001376  90D8               	bcf	status,0,c
  2033  001378  3637               	rlcf	___fladd@grs^0,f,c
  2034  00137A                     l1374:
  2035  00137A  5036               	movf	___fladd@bexp^0,w,c
  2036  00137C  B4D8               	btfsc	status,2,c
  2037  00137E  EFC3  F009         	goto	u1101
  2038  001382  EFC5  F009         	goto	u1100
  2039  001386                     u1101:
  2040  001386  EFC6  F009         	goto	l1378
  2041  00138A                     u1100:
  2042  00138A  0636               	decf	___fladd@bexp^0,f,c
  2043  00138C                     l1378:
  2044  00138C  AE2A               	btfss	(___fladd@b+2)^0,7,c
  2045  00138E  EFCB  F009         	goto	u1111
  2046  001392  EFCD  F009         	goto	u1110
  2047  001396                     u1111:
  2048  001396  EFA3  F009         	goto	l1362
  2049  00139A                     u1110:
  2050  00139A                     l1380:
  2051  00139A  0E00               	movlw	0
  2052  00139C  6E35               	movwf	___fladd@aexp^0,c
  2053  00139E  AE37               	btfss	___fladd@grs^0,7,c
  2054  0013A0  EFD4  F009         	goto	u1121
  2055  0013A4  EFD6  F009         	goto	u1120
  2056  0013A8                     u1121:
  2057  0013A8  EFEE  F009         	goto	l621
  2058  0013AC                     u1120:
  2059  0013AC  C037  F030         	movff	___fladd@grs,??___fladd
  2060  0013B0  0E7F               	movlw	127
  2061  0013B2  1630               	andwf	??___fladd^0,f,c
  2062  0013B4  B4D8               	btfsc	status,2,c
  2063  0013B6  EFDF  F009         	goto	u1131
  2064  0013BA  EFE1  F009         	goto	u1130
  2065  0013BE                     u1131:
  2066  0013BE  EFE5  F009         	goto	l622
  2067  0013C2                     u1130:
  2068  0013C2                     l1386:
  2069  0013C2  0E01               	movlw	1
  2070  0013C4  6E35               	movwf	___fladd@aexp^0,c
  2071  0013C6  EFEE  F009         	goto	l621
  2072  0013CA                     l622:
  2073  0013CA  A028               	btfss	___fladd@b^0,0,c
  2074  0013CC  EFEA  F009         	goto	u1141
  2075  0013D0  EFEC  F009         	goto	u1140
  2076  0013D4                     u1141:
  2077  0013D4  EFEE  F009         	goto	l621
  2078  0013D8                     u1140:
  2079  0013D8  EFE1  F009         	goto	l1386
  2080  0013DC                     l621:
  2081  0013DC  5035               	movf	___fladd@aexp^0,w,c
  2082  0013DE  B4D8               	btfsc	status,2,c
  2083  0013E0  EFF4  F009         	goto	u1151
  2084  0013E4  EFF6  F009         	goto	u1150
  2085  0013E8                     u1151:
  2086  0013E8  EF21  F00A         	goto	l1398
  2087  0013EC                     u1150:
  2088  0013EC  0E01               	movlw	1
  2089  0013EE  2628               	addwf	___fladd@b^0,f,c
  2090  0013F0  0E00               	movlw	0
  2091  0013F2  2229               	addwfc	(___fladd@b+1)^0,f,c
  2092  0013F4  222A               	addwfc	(___fladd@b+2)^0,f,c
  2093  0013F6  222B               	addwfc	(___fladd@b+3)^0,f,c
  2094  0013F8  A02B               	btfss	(___fladd@b+3)^0,0,c
  2095  0013FA  EF01  F00A         	goto	u1161
  2096  0013FE  EF03  F00A         	goto	u1160
  2097  001402                     u1161:
  2098  001402  EF21  F00A         	goto	l1398
  2099  001406                     u1160:
  2100  001406  C028  F030         	movff	___fladd@b,??___fladd
  2101  00140A  C029  F031         	movff	___fladd@b+1,??___fladd+1
  2102  00140E  C02A  F032         	movff	___fladd@b+2,??___fladd+2
  2103  001412  C02B  F033         	movff	___fladd@b+3,??___fladd+3
  2104  001416  3433               	rlcf	(??___fladd+3)^0,w,c
  2105  001418  3233               	rrcf	(??___fladd+3)^0,f,c
  2106  00141A  3232               	rrcf	(??___fladd+2)^0,f,c
  2107  00141C  3231               	rrcf	(??___fladd+1)^0,f,c
  2108  00141E  3230               	rrcf	??___fladd^0,f,c
  2109  001420  C030  F028         	movff	??___fladd,___fladd@b
  2110  001424  C031  F029         	movff	??___fladd+1,___fladd@b+1
  2111  001428  C032  F02A         	movff	??___fladd+2,___fladd@b+2
  2112  00142C  C033  F02B         	movff	??___fladd+3,___fladd@b+3
  2113  001430  2836               	incf	___fladd@bexp^0,w,c
  2114  001432  B4D8               	btfsc	status,2,c
  2115  001434  EF1E  F00A         	goto	u1171
  2116  001438  EF20  F00A         	goto	u1170
  2117  00143C                     u1171:
  2118  00143C  EF21  F00A         	goto	l1398
  2119  001440                     u1170:
  2120  001440  2A36               	incf	___fladd@bexp^0,f,c
  2121  001442                     l1398:
  2122  001442  2836               	incf	___fladd@bexp^0,w,c
  2123  001444  B4D8               	btfsc	status,2,c
  2124  001446  EF27  F00A         	goto	u1181
  2125  00144A  EF29  F00A         	goto	u1180
  2126  00144E                     u1181:
  2127  00144E  EF31  F00A         	goto	l1402
  2128  001452                     u1180:
  2129  001452  5036               	movf	___fladd@bexp^0,w,c
  2130  001454  A4D8               	btfss	status,2,c
  2131  001456  EF2F  F00A         	goto	u1191
  2132  00145A  EF31  F00A         	goto	u1190
  2133  00145E                     u1191:
  2134  00145E  EF43  F00A         	goto	l1406
  2135  001462                     u1190:
  2136  001462                     l1402:
  2137  001462  0E00               	movlw	0
  2138  001464  6E28               	movwf	___fladd@b^0,c
  2139  001466  0E00               	movlw	0
  2140  001468  6E29               	movwf	(___fladd@b+1)^0,c
  2141  00146A  0E00               	movlw	0
  2142  00146C  6E2A               	movwf	(___fladd@b+2)^0,c
  2143  00146E  0E00               	movlw	0
  2144  001470  6E2B               	movwf	(___fladd@b+3)^0,c
  2145  001472  5036               	movf	___fladd@bexp^0,w,c
  2146  001474  A4D8               	btfss	status,2,c
  2147  001476  EF3F  F00A         	goto	u1201
  2148  00147A  EF41  F00A         	goto	u1200
  2149  00147E                     u1201:
  2150  00147E  EF43  F00A         	goto	l1406
  2151  001482                     u1200:
  2152  001482  0E00               	movlw	0
  2153  001484  6E34               	movwf	___fladd@signs^0,c
  2154  001486                     l1406:
  2155  001486  A036               	btfss	___fladd@bexp^0,0,c
  2156  001488  EF48  F00A         	goto	u1211
  2157  00148C  EF4A  F00A         	goto	u1210
  2158  001490                     u1211:
  2159  001490  EF4D  F00A         	goto	l1410
  2160  001494                     u1210:
  2161  001494  8E2A               	bsf	(___fladd@b+2)^0,7,c
  2162  001496  EF4E  F00A         	goto	l1412
  2163  00149A                     l1410:
  2164  00149A  9E2A               	bcf	(___fladd@b+2)^0,7,c
  2165  00149C                     l1412:
  2166  00149C  90D8               	bcf	status,0,c
  2167  00149E  3036               	rrcf	___fladd@bexp^0,w,c
  2168  0014A0  6E2B               	movwf	(___fladd@b+3)^0,c
  2169  0014A2  AE34               	btfss	___fladd@signs^0,7,c
  2170  0014A4  EF56  F00A         	goto	u1221
  2171  0014A8  EF58  F00A         	goto	u1220
  2172  0014AC                     u1221:
  2173  0014AC  EF59  F00A         	goto	l1418
  2174  0014B0                     u1220:
  2175  0014B0  8E2B               	bsf	(___fladd@b+3)^0,7,c
  2176  0014B2                     l1418:
  2177  0014B2  C028  F028         	movff	___fladd@b,?___fladd
  2178  0014B6  C029  F029         	movff	___fladd@b+1,?___fladd+1
  2179  0014BA  C02A  F02A         	movff	___fladd@b+2,?___fladd+2
  2180  0014BE  C02B  F02B         	movff	___fladd@b+3,?___fladd+3
  2181  0014C2                     l604:
  2182  0014C2  0012               	return		;funcret
  2183  0014C4                     __end_of___fladd:
  2184                           	opt callstack 0
  2185                           
  2186                           	psect	rparam
  2187  0000                     tosu	equ	0xFFF
  2188                           tosh	equ	0xFFE
  2189                           tosl	equ	0xFFD
  2190                           stkptr	equ	0xFFC
  2191                           pclatu	equ	0xFFB
  2192                           pclath	equ	0xFFA
  2193                           pcl	equ	0xFF9
  2194                           tblptru	equ	0xFF8
  2195                           tblptrh	equ	0xFF7
  2196                           tblptrl	equ	0xFF6
  2197                           tablat	equ	0xFF5
  2198                           prodh	equ	0xFF4
  2199                           prodl	equ	0xFF3
  2200                           indf0	equ	0xFEF
  2201                           postinc0	equ	0xFEE
  2202                           postdec0	equ	0xFED
  2203                           preinc0	equ	0xFEC
  2204                           plusw0	equ	0xFEB
  2205                           fsr0h	equ	0xFEA
  2206                           fsr0l	equ	0xFE9
  2207                           wreg	equ	0xFE8
  2208                           indf1	equ	0xFE7
  2209                           postinc1	equ	0xFE6
  2210                           postdec1	equ	0xFE5
  2211                           preinc1	equ	0xFE4
  2212                           plusw1	equ	0xFE3
  2213                           fsr1h	equ	0xFE2
  2214                           fsr1l	equ	0xFE1
  2215                           bsr	equ	0xFE0
  2216                           indf2	equ	0xFDF
  2217                           postinc2	equ	0xFDE
  2218                           postdec2	equ	0xFDD
  2219                           preinc2	equ	0xFDC
  2220                           plusw2	equ	0xFDB
  2221                           fsr2h	equ	0xFDA
  2222                           fsr2l	equ	0xFD9
  2223                           status	equ	0xFD8


Data Sizes:
    Strings     1
    Constant    0
    Data        0
    BSS         0
    Persistent  0
    Stack       0

Auto Spaces:
    Space          Size  Autos    Used
    COMRAM          127     78      78
    BANK0           128      0       0
    BANK1           256      0       0
    BANK2           256      0       0
    BANK3           256      0       0
    BANK4           256      0       0
    BANK5           256      0       0
    BANK6           256      0       0
    BANK7           256      0       0
    BANK8           256      0       0
    BANK9           256      0       0
    BANK10          256      0       0
    BANK11          256      0       0
    BANK12          256      0       0
    BANK13          256      0       0
    BANK14          244      0       0
    BANK15          128      0       0

Pointer List with Targets:

    USART_receive_string@data	PTR unsigned char  size(2) Largest target is 1
		 -> STR_2(CODE[1]), 

    sp__USART_receive_string	PTR unsigned char  size(2) Largest target is 1
		 -> STR_2(CODE[1]), 

    main@datos	PTR unsigned char  size(2) Largest target is 1
		 -> STR_2(CODE[1]), STR_1(CODE[1]), 


Critical Paths under _main in COMRAM

    _main->_USART_config
    _USART_config->___fltol
    ___fltol->___fladd
    ___fldiv->___xxtofl
    ___fladd->___fldiv

Critical Paths under _main in BANK0

    None.

Critical Paths under _main in BANK1

    None.

Critical Paths under _main in BANK2

    None.

Critical Paths under _main in BANK3

    None.

Critical Paths under _main in BANK4

    None.

Critical Paths under _main in BANK5

    None.

Critical Paths under _main in BANK6

    None.

Critical Paths under _main in BANK7

    None.

Critical Paths under _main in BANK8

    None.

Critical Paths under _main in BANK9

    None.

Critical Paths under _main in BANK10

    None.

Critical Paths under _main in BANK11

    None.

Critical Paths under _main in BANK12

    None.

Critical Paths under _main in BANK13

    None.

Critical Paths under _main in BANK14

    None.

Critical Paths under _main in BANK15

    None.

Call Graph Tables:

 ---------------------------------------------------------------------------------
 (Depth) Function   	        Calls       Base Space   Used Autos Params    Refs
 ---------------------------------------------------------------------------------
 (0) _main                                                 5     5      0    4962
                                             73 COMRAM     5     5      0
                       _USART_config
                 _USART_receive_char
               _USART_receive_string
                    _USART_send_char
 ---------------------------------------------------------------------------------
 (1) _USART_send_char                                      2     2      0      15
                                              0 COMRAM     2     2      0
 ---------------------------------------------------------------------------------
 (1) _USART_receive_string                                 9     7      2     158
                                              0 COMRAM     9     7      2
                 _USART_receive_char
 ---------------------------------------------------------------------------------
 (2) _USART_receive_char                                   0     0      0       0
 ---------------------------------------------------------------------------------
 (1) _USART_config                                         8     4      4    4763
                                             65 COMRAM     8     4      4
                            ___fladd
                            ___fldiv
                            ___fltol
                           ___xxtofl
 ---------------------------------------------------------------------------------
 (2) ___xxtofl                                            14    10      4     398
                                              0 COMRAM    14    10      4
 ---------------------------------------------------------------------------------
 (2) ___fltol                                             10     6      4     305
                                             55 COMRAM    10     6      4
                            ___fladd (ARG)
                            ___fldiv (ARG)
                           ___xxtofl (ARG)
 ---------------------------------------------------------------------------------
 (2) ___fldiv                                             25    17      8    1551
                                             14 COMRAM    25    17      8
                           ___xxtofl (ARG)
 ---------------------------------------------------------------------------------
 (2) ___fladd                                             16     8      8    2388
                                             39 COMRAM    16     8      8
                            ___fldiv (ARG)
                           ___xxtofl (ARG)
 ---------------------------------------------------------------------------------
 Estimated maximum stack depth 2
 ---------------------------------------------------------------------------------

 Call Graph Graphs:

 _main (ROOT)
   _USART_config
     ___fladd
       ___fldiv (ARG)
         ___xxtofl (ARG)
       ___xxtofl (ARG)
     ___fldiv
       ___xxtofl (ARG)
     ___fltol
       ___fladd (ARG)
         ___fldiv (ARG)
           ___xxtofl (ARG)
         ___xxtofl (ARG)
       ___fldiv (ARG)
         ___xxtofl (ARG)
       ___xxtofl (ARG)
     ___xxtofl
   _USART_receive_char
   _USART_receive_string
     _USART_receive_char
   _USART_send_char

 Address spaces:
Name               Size   Autos  Total    Cost      Usage
BITCOMRAM           7F      0       0       0        0.0%
EEDATA             400      0       0       0        0.0%
NULL                 0      0       0       0        0.0%
CODE                 0      0       0       0        0.0%
COMRAM              7F     4E      4E       1       61.4%
STACK                0      0       0       2        0.0%
DATA                 0      0       0       3        0.0%
BITBANK0            80      0       0       4        0.0%
BANK0               80      0       0       5        0.0%
ABS                  0      0       0       6        0.0%
BITBANK1           100      0       0       7        0.0%
BANK1              100      0       0       8        0.0%
BITBANK2           100      0       0       9        0.0%
BANK2              100      0       0      10        0.0%
BITBANK3           100      0       0      11        0.0%
BANK3              100      0       0      12        0.0%
BITBANK4           100      0       0      13        0.0%
BANK4              100      0       0      14        0.0%
BITBANK5           100      0       0      15        0.0%
BANK5              100      0       0      16        0.0%
BITBANK6           100      0       0      17        0.0%
BANK6              100      0       0      18        0.0%
BITBANK7           100      0       0      19        0.0%
BANK7              100      0       0      20        0.0%
BITBANK8           100      0       0      21        0.0%
BANK8              100      0       0      22        0.0%
BITBANK9           100      0       0      23        0.0%
BANK9              100      0       0      24        0.0%
BITBANK10          100      0       0      25        0.0%
BANK10             100      0       0      26        0.0%
BITBANK11          100      0       0      27        0.0%
BANK11             100      0       0      28        0.0%
BITBANK12          100      0       0      29        0.0%
BANK12             100      0       0      30        0.0%
BITBANK13          100      0       0      31        0.0%
BANK13             100      0       0      32        0.0%
BITBANK14           F4      0       0      33        0.0%
BANK14              F4      0       0      34        0.0%
BITBANK15           80      0       0      35        0.0%
BANK15              80      0       0      36        0.0%
BIGRAM_1            80      0       0      37        0.0%
BIGRAM             EF3      0       0      38        0.0%
BITSFR_5             0      0       0     200        0.0%
SFR_5                0      0       0     200        0.0%
BITSFR_4             0      0       0     200        0.0%
SFR_4                0      0       0     200        0.0%
BITSFR_3             0      0       0     200        0.0%
SFR_3                0      0       0     200        0.0%
BITSFR_2             0      0       0     200        0.0%
SFR_2                0      0       0     200        0.0%
BITSFR_1             0      0       0     200        0.0%
SFR_1                0      0       0     200        0.0%
BITSFR               0      0       0     200        0.0%
SFR                  0      0       0     200        0.0%


Microchip Technology PIC18 Macro Assembler V2.10 build 88905656 
Symbol Table                                                                                   Mon Oct 14 23:23:13 2019

        USART_send_char@salida 0002                   ___fldiv@aexp 0027                   ___fldiv@bexp 0026  
                 ___fldiv@sign 001F                             l51 1C90                             l45 1BD2  
                           l54 1C92                             l56 1CA0                             l64 1C3E  
                           l48 1C6E                             l58 1CB6                             u10 1CA0  
                           u11 1C9C                             u20 1CAE                             u21 1CAA  
                  __CFG_BORV$3 000000                   __CFG_CP0$OFF 000000                   __CFG_CP1$OFF 000000  
                 __CFG_CP2$OFF 000000                   __CFG_CP3$OFF 000000                    __CFG_LVP$ON 000000  
                          l612 130C                            l604 14C2                            l364 1B16  
                          l621 13DC                            l622 13CA                            l722 18B4  
                          l651 16BC                            l660 1702                            l740 1C92  
                          l725 1A10                            l662 177A                            l654 1680  
                          l742 1CAE                            l663 1768                            l736 19A8  
                          l744 1CB4                            l649 185C                            l729 194C  
                          l595 11F2                            l596 11E0                            l597 11A6  
                 __CFG_CPB$OFF 000000                   __CFG_CPD$OFF 000000                            u900 10BA  
                          u901 10B6                            u910 10F6                            u830 1C7C  
                          u911 10F2                            u831 1C78                            u920 1104  
                          u840 101E                            u921 1100                            u841 101A  
                          u930 1172                            u850 1030                            u931 116E  
                          u851 102C                            u940 118A                            u860 1040  
                          u941 1184                            u861 103C                            u950 118C  
                          u870 1082                            u871 107E                            u960 11B4  
                          u880 1098                            u961 11B0                            u881 1094  
                          u970 11D2                            u890 10AA                            u971 11CE  
                          u891 10A6                            u980 11F2                            u981 11EE  
                          u990 1200                            u991 11FC                            wreg 000FE8  
                 ___fltol@exp1 0041                   __CFG_WDT$OFF 000000                           l1202 1C6E  
                         l1300 1148                           l1220 1004                           l1204 1C7C  
                         l1310 11C0                           l1302 1172                           l1230 1040  
                         l1222 1010                           l1206 1C80                           l1400 1452  
                         l1320 1200                           l1312 11C4                           l1304 118E  
                         l1240 1070                           l1232 1050                           l1224 101E  
                         l1410 149A                           l1402 1462                           l1330 1242  
                         l1322 1210                           l1314 11D2                           l1306 119E  
                         l1250 109A                           l1242 1082                           l1234 1052  
                         l1226 1020                           l1412 149C                           l1404 1482  
                         l1340 1270                           l1332 1250                           l1316 11D4  
                         l1308 11B4                           l1252 10AA                           l1260 10D4  
                         l1244 1084                           l1228 1030                           l1236 105A  
                         l1500 16A8                           l1414 14A2                           l1406 1486  
                         l1350 12DC                           l1342 127A                           l1334 125C  
                         l1326 1224                           l1318 11DE                           l1270 110C  
                         l1262 10E4                           l1254 10BA                           l1246 108A  
                         l1238 106A                           l1510 16E8                           l1502 16AA  
                         l1430 14F0                           l1422 14C4                           l1416 14B0  
                         l1408 1494                           l1352 12EC                           l1336 1260  
                         l1328 1234                           l1344 1280                           l1280 1120  
                         l1272 1110                           l1264 10F6                           l1256 10CA  
                         l1248 1098                           l1520 1724                           l1512 16F2  
                         l1504 16BA                           l1440 152A                           l1432 1500  
                         l1424 14D0                           l1600 1B06                           l1418 14B2  
                         l1370 136E                           l1362 1346                           l1346 12A6  
                         l1354 12FC                           l1338 126E                           l1290 1134  
                         l1282 1124                           l1274 1114                           l1266 1104  
                         l1258 10CC                           l1530 1796                           l1522 1732  
                         l1514 1700                           l1506 16CC                           l1450 1556  
                         l1442 1530                           l1434 1510                           l1426 14DE  
                         l1610 18C4                           l1372 1376                           l1364 1350  
                         l1356 1322                           l1348 12DA                           l1380 139A  
                         l1292 1138                           l1284 1128                           l1276 1118  
                         l1268 1108                           l1540 1802                           l1532 17A4  
                         l1524 1760                           l1508 16E2                           l1516 1712  
                         l1460 1590                           l1452 1566                           l1444 1536  
                         l1436 1512                           l1428 14E0                           l1620 1902  
                         l1612 18DA                           l1604 1860                           l1390 13EC  
                         l1382 139E                           l1374 137A                           l1366 135E  
                         l1358 1332                           l1294 113C                           l1286 112C  
                         l1278 111C                           l1550 1850                           l1542 181C  
                         l1534 17CE                           l1518 1720                           l1462 15A6  
                         l1454 1576                           l1446 1544                           l1438 151A  
                         l1630 198A                           l1622 1934                           l1606 1870  
                         l1392 13F8                           l1384 13AC                           l1376 138A  
                         l1368 1360                           l1296 1140                           l1288 1130  
                         l1552 1852                           l1544 1838                           l1528 178A  
                         l1536 17D2                           l1480 15FA                           l1464 15B6  
                         l1472 15D6                           l1456 1578                           l1448 1546  
                         l1560 1A12                           l1640 19E0                           l1632 1998  
                         l1624 1936                           l1616 18EE                           l1608 187E  
                         l1394 1406                           l1386 13C2                           l1378 138C  
                         l1298 1144                           l1546 183C                           l1538 17EC  
                         l1490 164C                           l1482 1614                           l1474 15E6  
                         l1466 15BE                           l1458 1580                           l1570 1A68  
                         l1562 1A28                           l1642 19F0                           l1634 19B6  
                         l1626 1942                           l1618 18F6                           l1650 1B18  
                         l1396 1440                           l1548 184A                           l1492 165C  
                         l1484 1624                           l1476 15E6                           l1468 15C2  
                         l1572 1A78                           l1644 19FE                           l1636 19B8  
                         l1628 197E                           l1652 1B1C                           l1660 1BE4  
                         l1398 1442                           l1494 1670                           l1486 1634  
                         l1582 1AA2                           l1574 1A7C                           l1566 1A3C  
                         l1646 1A00                           l1638 19BC                           l1654 1B66  
                         l1670 1C36                           l1662 1BEE                           l1496 167E  
                         l1488 1644                           l1592 1ACA                           l1584 1AAC  
                         l1576 1A8A                           l1568 1A66                           l1664 1C08  
                         l1656 1BD4                           l1680 1C54                           l1498 168A  
                         l1594 1AD6                           l1586 1AB6                           l1666 1C0C  
                         l1658 1BDC                           l1682 1C58                           l1674 1C40  
                         l1596 1AE6                           l1668 1C1C                           l1684 1C5E  
                         l1676 1C40                           l1598 1AF6                           l1678 1C40  
                         STR_1 1001                           STR_2 1001                           u1000 1210  
                         _CREN 007D5C                           u1001 120C                           u1010 1242  
                         u1011 123E                           u1100 138A                           u1020 1250  
                         u1101 1386                           u1021 124C                           u1110 139A  
                         u1030 126E                           u1111 1396                           u1031 126A  
                         u1200 1482                           u1120 13AC                           u1040 12A6  
                         u1201 147E                           u1121 13A8                           u1041 12A2  
                         u1210 1494                           u1130 13C2                           u1050 12EC  
                         u1211 1490                           u1131 13BE                           u1051 12E8  
                         u1220 14B0                           u1140 13D8                           u1060 1322  
                         u1300 15E6                           u1221 14AC                           u1141 13D4  
                         u1061 131E                           u1301 15E2                           u1150 13EC  
                         u1070 1332                           u1310 165C                           u1230 14DE  
                         u1151 13E8                           u1071 132E                           u1311 1658  
                         u1231 14DA                           u1160 1406                           u1080 135E  
                         u1400 1776                           u1320 167E                           u1240 14F0  
                         u1161 1402                           u1081 135A                           u1401 1772  
                         u1321 167A                           u1241 14EC                           u1170 1440  
                         u1090 136E                           u1410 178A                           u1330 16A8  
                         u1250 1500                           u1171 143C                           u1091 136A  
                         u1411 1786                           u1331 16A4                           u1251 14FC  
                         u1180 1452                           u1420 17A4                           u1340 16CC  
                         u1260 1544                           u1500 1AC6                           u1181 144E  
                         u1421 17A0                           u1341 16C8                           u1261 1540  
                         u1501 1AC2                           u1190 1462                           u1430 17EC  
                         u1350 16E2                           u1270 1556                           u1510 1AE6  
                         u1191 145E                           u1431 17E8                           u1351 16DE  
                         u1271 1552                           u1511 1AE2                           u1440 181C  
                         u1360 1700                           u1280 1566                           u1520 1AF6  
                         u1600 19B6                           u1441 1818                           u1361 16FC  
                         u1281 1562                           u1521 1AF2                           u1601 19B2  
                         u1450 184A                           u1370 1720                           u1290 15A6  
                         u1610 19F0                           u1530 1870                           u1451 1846  
                         u1371 171C                           u1291 15A2                           u1611 19EC  
                         u1531 186C                           u1380 1732                           u1460 1A28  
                         u1620 19FE                           u1540 187E                           u1381 172E  
                         u1461 1A24                           u1621 19FA                           u1541 187A  
                         u1390 1760                           u1470 1A5C                           u1550 18DA  
                         u1630 1C1C                           u1391 175C                           u1551 18D6  
                         u1631 1C18                           u1480 1A8A                           u1560 1930  
                         u1481 1A86                           u1561 192C                           u1490 1A9E  
                         u1570 197A                           u1491 1A9A                           u1475 1A52  
                         u1571 1976                           u1580 1998                           u1581 1994  
                         u1590 19A8                           u1591 19A4                           u1647 1C86  
                         _RCIF 007CF5                           _OERR 007D59                _USART_send_char 1C6C  
                         _TXIF 007CF4                           _main 1C40                           start 0000  
                __CFG_IESO$OFF 000000                ___fldiv@new_exp 0020                  __CFG_MCLRE$ON 000000  
                 ___param_bank 000000                  ___fltol@sign1 0040                __end_of___fladd 14C4  
                        ?_main 0001                __end_of___fldiv 185E                __end_of___fltol 1B18  
                        _RCREG 000FAE                          _RCSTA 000FAB                          _SPBRG 000FAF  
                        _TRISC 000F94                          _TXREG 000FAD                          _TXSTA 000FAC  
                __CFG_PWRT$OFF 000000                  __CFG_WRT0$OFF 000000                  __CFG_WRT1$OFF 000000  
                __CFG_WRT2$OFF 000000                  __CFG_WRT3$OFF 000000                 __CFG_EBTR0$OFF 000000  
               __CFG_FCMEN$OFF 000000                 __CFG_EBTR1$OFF 000000                 __CFG_EBTR2$OFF 000000  
               __CFG_EBTR3$OFF 000000                  __CFG_WRTB$OFF 000000                  __CFG_WRTC$OFF 000000  
                __CFG_WRTD$OFF 000000                 __CFG_EBTRB$OFF 000000                          tablat 000FF5  
                        status 000FD8          USART_config@Baud_Rate 0042                __initialization 1CB8  
                 __end_of_main 1C6C           _USART_receive_string 1BD4                 __CFG_OSC$HSPLL 000000  
                       ??_main 004A                  __activetblptr 000001        __end_of_USART_send_char 1C92  
             __end_of___xxtofl 1A12                 __CFG_XINST$OFF 000000                      ??___fladd 0030  
                    ??___fldiv 0017                 __CFG_STVREN$ON 000000                      ??___fltol 003C  
        ?_USART_receive_string 0001                   __mediumconst 0000                         tblptrh 000FF7  
                       tblptrl 000FF6                         tblptru 000FF8                   ___xxtofl@arg 000B  
                 ___xxtofl@exp 000A                   ___xxtofl@val 0001                     __accesstop 0080  
      __end_of__initialization 1CB8                __CFG_PBADEN$OFF 000000                  ___rparam_used 000001  
                   ___fltol@f1 0038                 __pcstackCOMRAM 0001             _USART_receive_char 1C92  
             ?_USART_send_char 0001            ?_USART_receive_char 0001           ??_USART_receive_char 0001  
       ??_USART_receive_string 0003                        _BAUDCON 000FB8                      ?___xxtofl 0001  
                      __Hparam 0000                        __Lparam 0000                        ___fladd 1004  
                      ___fldiv 14C4                        ___fltol 1A12                   __psmallconst 1000  
                      __pcinit 1CB8                        __ramtop 1000                        __ptext0 1C40  
                      __ptext1 1C6C                        __ptext2 1BD4                        __ptext3 1C92  
                      __ptext4 1B18                        __ptext5 185E                        __ptext6 1A12  
                      __ptext7 14C4                        __ptext8 1004                     ??___xxtofl 0005  
         end_of_initialization 1CB8                    ___fladd@grs 0037                  ___xxtofl@sign 0009  
                  ___fldiv@grs 0022                    ___fldiv@rem 001B                  ?_USART_config 0042  
          start_initialization 1CB8                 ??_USART_config 0046               __CFG_LPT1OSC$OFF 000000  
                    ___fladd@a 002C                      ___fladd@b 0028                      ___fldiv@a 0013  
                    ___fldiv@b 000F              __size_of___xxtofl 01B4       __size_of_USART_send_char 0026  
  __size_of_USART_receive_char 0026              __CFG_CCP2MX$PORTC 000000                       ?___fladd 0028  
                     ?___fldiv 000F                       ?___fltol 0038  __size_of_USART_receive_string 006C  
                  __smallconst 1000          USART_receive_string@i 0005               __CFG_WDTPS$32768 000000  
         __end_of_USART_config 1BD4       USART_receive_string@data 0008       USART_receive_string@dato 0007  
                     __Hrparam 0000                       __Lrparam 0000                   __Lsmallconst 1000  
            ??_USART_send_char 0001             __CFG_BOREN$SBORDIS 000000               __size_of___fladd 04C0  
             __size_of___fldiv 039A               __size_of___fltol 0106                       ___xxtofl 185E  
                __size_of_main 002C                       main@dato 004E          __size_of_USART_config 00BC  
                ___fladd@signs 0034   __end_of_USART_receive_string 1C40                   ___fladd@aexp 0035  
                 ___fladd@bexp 0036     __end_of_USART_receive_char 1CB8               _USART_config$688 0046  
                 _USART_config 1B18  
